   2              	# GNU C++14 (Ubuntu 7.3.0-27ubuntu1~18.04) version 7.3.0 (x86_64-linux-gnu)
   3              	#	compiled by GNU C version 7.3.0, GMP version 6.1.2, MPFR version 4.0.1, MPC version 1.1.0, isl ve
   4              	
   5              	# GGC heuristics: --param ggc-min-expand=100 --param ggc-min-heapsize=131072
   6              	# options passed:  -imultiarch x86_64-linux-gnu -D_GNU_SOURCE test.cc
   7              	# -march=ivybridge -mmmx -mno-3dnow -msse -msse2 -msse3 -mssse3 -mno-sse4a
   8              	# -mcx16 -msahf -mno-movbe -maes -mno-sha -mpclmul -mpopcnt -mno-abm
   9              	# -mno-lwp -mno-fma -mno-fma4 -mno-xop -mno-bmi -mno-sgx -mno-bmi2 -mno-tbm
  10              	# -mavx -mno-avx2 -msse4.2 -msse4.1 -mno-lzcnt -mno-rtm -mno-hle -mrdrnd
  11              	# -mf16c -mfsgsbase -mno-rdseed -mno-prfchw -mno-adx -mfxsr -mxsave
  12              	# -mxsaveopt -mno-avx512f -mno-avx512er -mno-avx512cd -mno-avx512pf
  13              	# -mno-prefetchwt1 -mno-clflushopt -mno-xsavec -mno-xsaves -mno-avx512dq
  14              	# -mno-avx512bw -mno-avx512vl -mno-avx512ifma -mno-avx512vbmi
  15              	# -mno-avx5124fmaps -mno-avx5124vnniw -mno-clwb -mno-mwaitx -mno-clzero
  16              	# -mno-pku -mno-rdpid --param l1-cache-size=32
  17              	# --param l1-cache-line-size=64 --param l2-cache-size=20480
  18              	# -mtune=ivybridge -masm=att -g -O3 -fverbose-asm -fstack-protector-strong
  19              	# -Wformat -Wformat-security
  20              	# options enabled:  -fPIC -fPIE -faggressive-loop-optimizations
  21              	# -falign-labels -fasynchronous-unwind-tables -fauto-inc-dec
  22              	# -fbranch-count-reg -fcaller-saves -fchkp-check-incomplete-type
  23              	# -fchkp-check-read -fchkp-check-write -fchkp-instrument-calls
  24              	# -fchkp-narrow-bounds -fchkp-optimize -fchkp-store-bounds
  25              	# -fchkp-use-static-bounds -fchkp-use-static-const-bounds
  26              	# -fchkp-use-wrappers -fcode-hoisting -fcombine-stack-adjustments -fcommon
  27              	# -fcompare-elim -fcprop-registers -fcrossjumping -fcse-follow-jumps
  28              	# -fdefer-pop -fdelete-null-pointer-checks -fdevirtualize
  29              	# -fdevirtualize-speculatively -fdwarf2-cfi-asm -fearly-inlining
  30              	# -feliminate-unused-debug-types -fexceptions -fexpensive-optimizations
  31              	# -fforward-propagate -ffp-int-builtin-inexact -ffunction-cse -fgcse
  32              	# -fgcse-after-reload -fgcse-lm -fgnu-runtime -fgnu-unique
  33              	# -fguess-branch-probability -fhoist-adjacent-loads -fident -fif-conversion
  34              	# -fif-conversion2 -findirect-inlining -finline -finline-atomics
  35              	# -finline-functions -finline-functions-called-once
  36              	# -finline-small-functions -fipa-bit-cp -fipa-cp -fipa-cp-clone -fipa-icf
  37              	# -fipa-icf-functions -fipa-icf-variables -fipa-profile -fipa-pure-const
  38              	# -fipa-ra -fipa-reference -fipa-sra -fipa-vrp -fira-hoist-pressure
  39              	# -fira-share-save-slots -fira-share-spill-slots
  40              	# -fisolate-erroneous-paths-dereference -fivopts -fkeep-static-consts
  41              	# -fleading-underscore -flifetime-dse -flra-remat -flto-odr-type-merging
  42              	# -fmath-errno -fmerge-constants -fmerge-debug-strings
  43              	# -fmove-loop-invariants -fomit-frame-pointer -foptimize-sibling-calls
  44              	# -foptimize-strlen -fpartial-inlining -fpeel-loops -fpeephole -fpeephole2
  45              	# -fplt -fpredictive-commoning -fprefetch-loop-arrays -free
  46              	# -freg-struct-return -freorder-blocks -freorder-functions
  47              	# -frerun-cse-after-loop -fsched-critical-path-heuristic
  48              	# -fsched-dep-count-heuristic -fsched-group-heuristic -fsched-interblock
  49              	# -fsched-last-insn-heuristic -fsched-rank-heuristic -fsched-spec
  50              	# -fsched-spec-insn-heuristic -fsched-stalled-insns-dep -fschedule-fusion
  51              	# -fschedule-insns2 -fsemantic-interposition -fshow-column -fshrink-wrap
  52              	# -fshrink-wrap-separate -fsigned-zeros -fsplit-ivs-in-unroller
  53              	# -fsplit-loops -fsplit-paths -fsplit-wide-types -fssa-backprop
  54              	# -fssa-phiopt -fstack-protector-strong -fstdarg-opt -fstore-merging
  55              	# -fstrict-aliasing -fstrict-overflow -fstrict-volatile-bitfields
  56              	# -fsync-libcalls -fthread-jumps -ftoplevel-reorder -ftrapping-math
  57              	# -ftree-bit-ccp -ftree-builtin-call-dce -ftree-ccp -ftree-ch
  58              	# -ftree-coalesce-vars -ftree-copy-prop -ftree-cselim -ftree-dce
  59              	# -ftree-dominator-opts -ftree-dse -ftree-forwprop -ftree-fre
  60              	# -ftree-loop-distribute-patterns -ftree-loop-if-convert -ftree-loop-im
  61              	# -ftree-loop-ivcanon -ftree-loop-optimize -ftree-loop-vectorize
  62              	# -ftree-parallelize-loops= -ftree-partial-pre -ftree-phiprop -ftree-pre
  63              	# -ftree-pta -ftree-reassoc -ftree-scev-cprop -ftree-sink
  64              	# -ftree-slp-vectorize -ftree-slsr -ftree-sra -ftree-switch-conversion
  65              	# -ftree-tail-merge -ftree-ter -ftree-vrp -funit-at-a-time -funswitch-loops
  66              	# -funwind-tables -fvar-tracking -fvar-tracking-assignments -fverbose-asm
  67              	# -fzero-initialized-in-bss -m128bit-long-double -m64 -m80387 -maes
  68              	# -malign-stringops -mavx -mavx256-split-unaligned-load
  69              	# -mavx256-split-unaligned-store -mcx16 -mf16c -mfancy-math-387
  70              	# -mfp-ret-in-387 -mfsgsbase -mfxsr -mglibc -mieee-fp -mlong-double-80
  71              	# -mmmx -mpclmul -mpopcnt -mpush-args -mrdrnd -mred-zone -msahf -msse
  72              	# -msse2 -msse3 -msse4 -msse4.1 -msse4.2 -mssse3 -mstv
  73              	# -mtls-direct-seg-refs -mvzeroupper -mxsave -mxsaveopt
  74              	
  75              		.text
  76              	.Ltext0:
  77              		.section	.text._ZNKSt5ctypeIcE8do_widenEc,"axG",@progbits,_ZNKSt5ctypeIcE8do_widenEc,comdat
  78              		.align 2
  80              		.weak	_ZNKSt5ctypeIcE8do_widenEc
  82              	_ZNKSt5ctypeIcE8do_widenEc:
  88              	# /usr/include/c++/7/bits/locale_facets.h:1083:       { return __c; }
  90 0000 89F0     		movl	%esi, %eax	# __c,
  91 0002 C3       		ret
  95              		.section	.text._ZN11measurement15IteratorCompareI11SortableRefEEbPT_S3_,"axG",@progbits,_ZN11measu
  97              		.weak	_ZN11measurement15IteratorCompareI11SortableRefEEbPT_S3_
  99              	_ZN11measurement15IteratorCompareI11SortableRefEEbPT_S3_:
   1:Measure.h     **** 
   2:Measure.h     **** #ifndef MEASURE_H
   3:Measure.h     **** #define MEASURE_H
   4:Measure.h     **** 
   5:Measure.h     **** #include <string>
   6:Measure.h     **** #include <vector>
   7:Measure.h     **** 
   8:Measure.h     **** #include "Result.h"
   9:Measure.h     **** #include "ArrayHelpers.h"
  10:Measure.h     **** #include "Performancing.h"
  11:Measure.h     **** #include "QuickSort.h"
  12:Measure.h     **** #include "Quicksort_Copy.h"
  13:Measure.h     **** #include "Randomisation.generated.h"
  14:Measure.h     **** #include "StructHelpers.generated.h"
  15:Measure.h     **** #include "DebugHelper.h"
  16:Measure.h     **** 
  17:Measure.h     **** namespace measurement
  18:Measure.h     **** {
  19:Measure.h     ****     
  20:Measure.h     **** template <typename TValueType>
  21:Measure.h     **** void Measure(
  22:Measure.h     ****     Performancing* perf,
  23:Measure.h     ****     int numberOfIterations,
  24:Measure.h     ****     size_t arraySize,
  25:Measure.h     ****     int measureIteration,
  26:Measure.h     ****     std::string sorterName,
  27:Measure.h     ****     void(*sortFunc)(TValueType*,size_t))
  28:Measure.h     **** {
  29:Measure.h     ****     TValueType *arr = (TValueType*) malloc(sizeof(TValueType) * arraySize);
  30:Measure.h     ****     
  31:Measure.h     ****     int numberOfBadSorts = 0;
  32:Measure.h     ****     randomisation::GenerateRandomArray(arr, arraySize);
  33:Measure.h     ****     sortFunc(arr, arraySize);
  34:Measure.h     ****     if (!IsSorted(arr, arraySize)) 
  35:Measure.h     ****     {
  36:Measure.h     ****         numberOfBadSorts += 1;
  37:Measure.h     ****     }
  38:Measure.h     **** 
  39:Measure.h     ****     uint64_t key_iter = 1;
  40:Measure.h     ****     uint64_t ref_iter = 1;
  41:Measure.h     ****     uint64_t key_value;
  42:Measure.h     ****     uint64_t ref_value;
  43:Measure.h     ****     perf->StartMeasuring();
  44:Measure.h     ****     for (int i = 0; i < numberOfIterations; i += 1)
  45:Measure.h     ****     {
  46:Measure.h     ****         randomisation::GenerateRandomArray(arr, arraySize);
  47:Measure.h     ****         key_iter = 1;
  48:Measure.h     ****         ref_iter = 1;
  49:Measure.h     ****         PutPermutationValues(arr, arraySize, key_value, key_iter, ref_value, ref_iter);
  50:Measure.h     ****         sortFunc(arr, arraySize);
  51:Measure.h     **** 
  52:Measure.h     ****         if (!IsSortedAndPermutation(arr, arraySize, key_iter, key_value, ref_iter, ref_value))
  53:Measure.h     ****         {
  54:Measure.h     ****             numberOfBadSorts += 1;
  55:Measure.h     ****         }
  56:Measure.h     ****     }
  57:Measure.h     ****     perf->StopMeasuring();
  58:Measure.h     **** 
  59:Measure.h     ****     result::WriteResultLine(
  60:Measure.h     ****         sorterName,
  61:Measure.h     ****         perf,
  62:Measure.h     ****         sizeof(TValueType),
  63:Measure.h     ****         arraySize,
  64:Measure.h     ****         measureIteration,
  65:Measure.h     ****         numberOfIterations,
  66:Measure.h     ****         numberOfBadSorts,
  67:Measure.h     ****         true
  68:Measure.h     ****     );
  69:Measure.h     **** 
  70:Measure.h     ****     free(arr);
  71:Measure.h     **** }
  72:Measure.h     **** 
  73:Measure.h     **** template <typename TValueType>
  74:Measure.h     **** void MeasureInRow(
  75:Measure.h     ****     Performancing* perf,
  76:Measure.h     ****     int numberOfArrays,
  77:Measure.h     ****     size_t arraySize,
  78:Measure.h     ****     int measureIteration,
  79:Measure.h     ****     std::string sorterName,
  80:Measure.h     ****     void(*sortFunc)(TValueType*,size_t))
  81:Measure.h     **** {
  82:Measure.h     ****     TValueType *arr = (TValueType*) malloc(sizeof(TValueType) * numberOfArrays * arraySize);
  83:Measure.h     ****     TValueType *arrEnd = arr + numberOfArrays * arraySize;
  84:Measure.h     ****     TValueType *compare = (TValueType*) malloc(sizeof(TValueType) * numberOfArrays * arraySize);
  85:Measure.h     ****     TValueType *compareEnd = compare + numberOfArrays * arraySize;
  86:Measure.h     ****     TValueType warmupArr[arraySize];
  87:Measure.h     **** 
  88:Measure.h     ****     randomisation::GenerateRandomArray(arr, numberOfArrays * arraySize);
  89:Measure.h     ****     CopyArray(arr, compare, numberOfArrays * arraySize);
  90:Measure.h     ****     randomisation::GenerateRandomArray(warmupArr, arraySize);
  91:Measure.h     **** 
  92:Measure.h     ****     for (TValueType* current = compare; current < compareEnd; current += arraySize)
  93:Measure.h     ****     {
  94:Measure.h     ****         insertionsort::InsertionSort(current, arraySize);
  95:Measure.h     ****     }
  96:Measure.h     **** 
  97:Measure.h     ****     int numberOfBadSorts = 0;
  98:Measure.h     ****     sortFunc(warmupArr, arraySize);
  99:Measure.h     ****     if (!IsSorted(warmupArr, arraySize))
 100:Measure.h     ****     {
 101:Measure.h     ****         numberOfBadSorts += 1;
 102:Measure.h     ****     }
 103:Measure.h     ****     
 104:Measure.h     ****     perf->StartMeasuring();
 105:Measure.h     ****     for (TValueType* current = arr; current < arrEnd; current += arraySize)
 106:Measure.h     ****     {
 107:Measure.h     ****         sortFunc(current, arraySize);
 108:Measure.h     ****     }
 109:Measure.h     ****     perf->StopMeasuring();
 110:Measure.h     **** 
 111:Measure.h     ****     for (int i = 0; i < numberOfArrays; i += 1)
 112:Measure.h     ****     {
 113:Measure.h     ****         if (!IsSameArray(&arr[i * arraySize], &compare[i * arraySize], arraySize))
 114:Measure.h     ****         {
 115:Measure.h     ****             numberOfBadSorts += 1;
 116:Measure.h     ****         }
 117:Measure.h     ****     }
 118:Measure.h     **** 
 119:Measure.h     ****     result::WriteResultLine(
 120:Measure.h     ****         sorterName, 
 121:Measure.h     ****         perf, 
 122:Measure.h     ****         sizeof(TValueType),
 123:Measure.h     ****         arraySize,
 124:Measure.h     ****         measureIteration,
 125:Measure.h     ****         numberOfArrays,
 126:Measure.h     ****         numberOfBadSorts,
 127:Measure.h     ****         true
 128:Measure.h     ****     );
 129:Measure.h     **** 
 130:Measure.h     ****     free(arr);
 131:Measure.h     ****     free(compare);
 132:Measure.h     **** }
 133:Measure.h     **** 
 134:Measure.h     **** template <typename TValueType>
 135:Measure.h     **** void MeasureSampleSort(
 136:Measure.h     ****     Performancing* perf,
 137:Measure.h     ****     int numberOfIterations,
 138:Measure.h     ****     size_t arraySize,
 139:Measure.h     ****     int measureIteration,
 140:Measure.h     ****     std::string sorterName,
 141:Measure.h     ****     void(*sortFunc)(TValueType*,size_t,size_t,void(*)(TValueType*,size_t), bool(*)(uint64_t&,TValue
 142:Measure.h     ****     void(*baseCaseSortFunc)(TValueType*,size_t))
 143:Measure.h     **** {
 144:Measure.h     ****     TValueType *arr = (TValueType*) malloc(sizeof(TValueType) * arraySize);
 145:Measure.h     ****     randomisation::GenerateRandomArray(arr, arraySize);
 146:Measure.h     ****     int numberOfBadSorts = 0;
 147:Measure.h     ****     uint64_t key_iter = 1;
 148:Measure.h     ****     uint64_t ref_iter = 1;
 149:Measure.h     ****     uint64_t key_value;
 150:Measure.h     ****     uint64_t ref_value;
 151:Measure.h     ****     PutPermutationValues(arr, arraySize, key_value, key_iter, ref_value, ref_iter);
 152:Measure.h     ****     sortFunc(arr, arraySize, 16, baseCaseSortFunc, &quicksort::templateLess<TValueType>, &GetKey<TV
 153:Measure.h     ****     if (!IsSortedAndPermutation(arr, arraySize, key_iter, key_value, ref_iter, ref_value))
 154:Measure.h     ****     {
 155:Measure.h     ****         numberOfBadSorts += 1;
 156:Measure.h     ****     }
 157:Measure.h     **** 
 158:Measure.h     ****     perf->StartMeasuring();
 159:Measure.h     ****     for (int i = 0; i < numberOfIterations; i += 1)
 160:Measure.h     ****     {
 161:Measure.h     ****         randomisation::GenerateRandomArray(arr, arraySize);
 162:Measure.h     ****         key_iter = 1;
 163:Measure.h     ****         ref_iter = 1;
 164:Measure.h     ****         PutPermutationValues(arr, arraySize, key_value, key_iter, ref_value, ref_iter);
 165:Measure.h     ****         sortFunc(arr, arraySize, 16, baseCaseSortFunc, &quicksort::templateLess<TValueType>, &GetKe
 166:Measure.h     ****         if (!IsSortedAndPermutation(arr, arraySize, key_iter, key_value, ref_iter, ref_value))
 167:Measure.h     ****         {
 168:Measure.h     ****             numberOfBadSorts += 1;
 169:Measure.h     ****         }
 170:Measure.h     ****     }
 171:Measure.h     ****     perf->StopMeasuring();
 172:Measure.h     **** 
 173:Measure.h     ****     result::WriteResultLine(
 174:Measure.h     ****         sorterName,
 175:Measure.h     ****         perf,
 176:Measure.h     ****         sizeof(TValueType),
 177:Measure.h     ****         arraySize,
 178:Measure.h     ****         measureIteration,
 179:Measure.h     ****         numberOfIterations,
 180:Measure.h     ****         numberOfBadSorts,
 181:Measure.h     ****         true
 182:Measure.h     ****     );
 183:Measure.h     **** 
 184:Measure.h     ****     free(arr);
 185:Measure.h     **** }
 186:Measure.h     **** 
 187:Measure.h     **** template <typename TValueType>
 188:Measure.h     **** void BaseCaseSortBlank(TValueType* arr, size_t arraySize) {}
 189:Measure.h     **** 
 190:Measure.h     **** template <typename TValueType>
 191:Measure.h     **** bool IteratorCompare(TValueType* left, TValueType* right)
 107              	# Sortable.generated.h:34: 		return left.key < right.key;
   1:Sortable.generated.h **** //------------------------------------------------------------------------------
   2:Sortable.generated.h **** // <auto-generated>
   3:Sortable.generated.h **** //     This code was auto-generated
   4:Sortable.generated.h **** //
   5:Sortable.generated.h **** //     Changes to this file may cause incorrect behavior and will be lost if
   6:Sortable.generated.h **** //     the code is regenerated.
   7:Sortable.generated.h **** // </auto-generated>
   8:Sortable.generated.h **** //------------------------------------------------------------------------------
   9:Sortable.generated.h **** 
  10:Sortable.generated.h **** 
  11:Sortable.generated.h **** #ifndef SORTABLE_GENERATED_H
  12:Sortable.generated.h **** #define SORTABLE_GENERATED_H
  13:Sortable.generated.h **** 
  14:Sortable.generated.h **** #define ArraySize 16
  15:Sortable.generated.h **** #include <inttypes.h>
  16:Sortable.generated.h **** struct SortableRef
  17:Sortable.generated.h **** {
  18:Sortable.generated.h **** 	uint64_t key;
  19:Sortable.generated.h **** 	uint64_t reference;
  20:Sortable.generated.h **** 	friend bool operator>(const SortableRef& left, const SortableRef& right)
  21:Sortable.generated.h **** 	{
  22:Sortable.generated.h **** 		return left.key > right.key;
  23:Sortable.generated.h **** 	}
  24:Sortable.generated.h **** 	friend bool operator>=(const SortableRef& left, const SortableRef& right)
  25:Sortable.generated.h **** 	{
  26:Sortable.generated.h **** 		return left.key >= right.key;
  27:Sortable.generated.h **** 	}
  28:Sortable.generated.h **** 	friend bool operator==(const SortableRef& left, const SortableRef& right)
  29:Sortable.generated.h **** 	{
  30:Sortable.generated.h **** 		return left.key == right.key;
  31:Sortable.generated.h **** 	}
  32:Sortable.generated.h **** 	friend bool operator<(const SortableRef& left, const SortableRef& right)
  33:Sortable.generated.h **** 	{
  34:Sortable.generated.h **** 		return left.key < right.key;
 110 0000 488B06   		movq	(%rsi), %rax	# MEM[(long unsigned int *)right_3(D)], tmp95
 111 0003 483907   		cmpq	%rax, (%rdi)	# tmp95, MEM[(long unsigned int *)left_2(D)]
 112 0006 0F92C0   		setb	%al	#, tmp93
 115              	# Measure.h:194: }
 192:Measure.h     **** {
 193:Measure.h     ****     return *left < *right;
 194:Measure.h     **** }
 117 0009 C3       		ret
 121              		.section	.text._ZN11measurement13NormalCompareI11SortableRefEEbRT_S3_,"axG",@progbits,_ZN11measure
 123              		.weak	_ZN11measurement13NormalCompareI11SortableRefEEbRT_S3_
 125              	_ZN11measurement13NormalCompareI11SortableRefEEbRT_S3_:
 195:Measure.h     **** 
 196:Measure.h     **** template <typename TValueType>
 197:Measure.h     **** bool NormalCompare(TValueType& left, TValueType& right)
 132              	# Sortable.generated.h:34: 		return left.key < right.key;
 134 0000 488B06   		movq	(%rsi), %rax	# MEM[(long unsigned int *)right_3(D)], tmp95
 135 0003 483907   		cmpq	%rax, (%rdi)	# tmp95, MEM[(long unsigned int *)left_2(D)]
 136 0006 0F92C0   		setb	%al	#, tmp93
 139              	# Measure.h:200: }
 198:Measure.h     **** {
 199:Measure.h     ****     return left < right;
 200:Measure.h     **** }
 141 0009 C3       		ret
 145              		.text
 147              		.globl	_ZN13randomisation7SetSeedEm
 149              	_ZN13randomisation7SetSeedEm:
   1:Randomisation.h **** 
   2:Randomisation.h **** #ifndef RANDOMISATION_H
   3:Randomisation.h **** #define RANDOMISATION_H
   4:Randomisation.h **** 
   5:Randomisation.h **** #include <stdlib.h>
   6:Randomisation.h **** #include <inttypes.h>
   7:Randomisation.h **** #include <stdexcept>
   8:Randomisation.h **** 
   9:Randomisation.h **** #include "Sortable.generated.h"
  10:Randomisation.h **** 
  11:Randomisation.h **** namespace randomisation {
  12:Randomisation.h **** 
  13:Randomisation.h **** uint64_t _seed = 1;
  14:Randomisation.h **** 
  15:Randomisation.h **** void SetSeed(uint64_t seed) {
 155              	# Randomisation.h:16:     _seed = seed;
  16:Randomisation.h ****     _seed = seed;
 157 0000 48893D00 		movq	%rdi, _ZN13randomisation5_seedE(%rip)	# seed, _seed
 157      000000
 158              	# Randomisation.h:17: }
  17:Randomisation.h **** }
 160 0007 C3       		ret
 164      00000000 
 165              		.globl	_ZN13randomisation20GenerateRandomUint64Ev
 167              	_ZN13randomisation20GenerateRandomUint64Ev:
  18:Randomisation.h **** 
  19:Randomisation.h **** uint64_t GenerateRandomUint64() {
 171              	# Randomisation.h:20:     _seed = _seed * 48271 % 2147483647;
  20:Randomisation.h ****     _seed = _seed * 48271 % 2147483647;
 173 0010 48690D00 		imulq	$48271, _ZN13randomisation5_seedE(%rip), %rcx	#, _seed, tmp90
 173      0000008F 
 173      BC0000
 174 001b 48BA0500 		movabsq	$8589934597, %rdx	#, tmp93
 174      00000200 
 174      0000
 175 0025 4889C8   		movq	%rcx, %rax	# tmp90, tmp101
 176 0028 48F7E2   		mulq	%rdx	# tmp93
 177 002b 4889C8   		movq	%rcx, %rax	# tmp90, tmp94
 178 002e 4829D0   		subq	%rdx, %rax	# tmp92, tmp94
 179 0031 48D1E8   		shrq	%rax	# tmp95
 180 0034 4801D0   		addq	%rdx, %rax	# tmp92, tmp96
 181 0037 48C1E81E 		shrq	$30, %rax	#, <retval>
 182 003b 4889C2   		movq	%rax, %rdx	# <retval>, tmp98
 183 003e 48C1E21F 		salq	$31, %rdx	#, tmp98
 184 0042 4829C2   		subq	%rax, %rdx	# <retval>, tmp98
 185 0045 4829D1   		subq	%rdx, %rcx	# tmp99, tmp90
 186 0048 4889C8   		movq	%rcx, %rax	# tmp90, <retval>
 187 004b 48890D00 		movq	%rcx, _ZN13randomisation5_seedE(%rip)	# <retval>, _seed
 187      000000
 188              	# Randomisation.h:22: }
  21:Randomisation.h ****     return _seed;
  22:Randomisation.h **** }
 190 0052 C3       		ret
 194      2E0F1F84 
 194      00000000 
 194      00
 195              		.globl	_ZN13randomisation19GenerateRandomArrayI11SortableRefEEvPT_m
 197              	_ZN13randomisation19GenerateRandomArrayI11SortableRefEEvPT_m:
   1:Randomisation.generated.h **** //------------------------------------------------------------------------------
   2:Randomisation.generated.h **** // <auto-generated>
   3:Randomisation.generated.h **** //     This code was auto-generated
   4:Randomisation.generated.h **** //
   5:Randomisation.generated.h **** //     Changes to this file may cause incorrect behavior and will be lost if
   6:Randomisation.generated.h **** //     the code is regenerated.
   7:Randomisation.generated.h **** // </auto-generated>
   8:Randomisation.generated.h **** //------------------------------------------------------------------------------
   9:Randomisation.generated.h **** 
  10:Randomisation.generated.h **** #ifndef RANDOMISATION_GENERATED_H
  11:Randomisation.generated.h **** #define RANDOMISATION_GENERATED_H
  12:Randomisation.generated.h **** 
  13:Randomisation.generated.h **** #include "Randomisation.h"
  14:Randomisation.generated.h **** namespace randomisation
  15:Randomisation.generated.h **** {
  16:Randomisation.generated.h **** template <typename TValueType>
  17:Randomisation.generated.h **** void GenerateRandomArray(TValueType* arr, size_t arraySize)
  18:Randomisation.generated.h **** {
  19:Randomisation.generated.h **** 	throw std::logic_error("randomisation::GenerateRandomArray => Not implemented for generic type");
  20:Randomisation.generated.h **** }
  21:Randomisation.generated.h **** template<>
  22:Randomisation.generated.h **** void GenerateRandomArray<SortableRef>(SortableRef* arr, size_t arraySize)
  23:Randomisation.generated.h **** {
 205              	# Randomisation.h:20:     _seed = _seed * 48271 % 2147483647;
  20:Randomisation.h ****     return _seed;
 207 0060 48690D00 		imulq	$48271, _ZN13randomisation5_seedE(%rip), %rcx	#, _seed, tmp120
 207      0000008F 
 207      BC0000
 208 006b 49B90500 		movabsq	$8589934597, %r9	#, tmp123
 208      00000200 
 208      0000
 209 0075 4889C8   		movq	%rcx, %rax	# tmp120, tmp148
 210 0078 49F7E1   		mulq	%r9	# tmp123
 211 007b 4889C8   		movq	%rcx, %rax	# tmp120, tmp124
 212 007e 4829D0   		subq	%rdx, %rax	# tmp122, tmp124
 213 0081 48D1E8   		shrq	%rax	# tmp125
 214 0084 4801C2   		addq	%rax, %rdx	# tmp125, tmp126
 215 0087 48C1EA1E 		shrq	$30, %rdx	#, _seed_lsm.374
 216 008b 4889D0   		movq	%rdx, %rax	# _seed_lsm.374, tmp128
 217 008e 48C1E01F 		salq	$31, %rax	#, tmp128
 218 0092 4829D0   		subq	%rdx, %rax	# _seed_lsm.374, tmp129
 219 0095 4829C1   		subq	%rax, %rcx	# tmp129, tmp120
 220 0098 4889CA   		movq	%rcx, %rdx	# tmp120, _seed_lsm.374
 221 009b 48890D00 		movq	%rcx, _ZN13randomisation5_seedE(%rip)	# _seed_lsm.374, _seed
 221      000000
 226              	# Randomisation.generated.h:25: 	for (int i = 0; i < arraySize; i += 1)
  24:Randomisation.generated.h **** 	uint64_t reference = randomisation::GenerateRandomUint64();
  25:Randomisation.generated.h **** 	for (int i = 0; i < arraySize; i += 1)
 228 00a2 4885F6   		testq	%rsi, %rsi	# arraySize
 229 00a5 745A     		je	.L14	#,
 230 00a7 48C1E604 		salq	$4, %rsi	#, tmp130
 232 00ab 4C8D0437 		leaq	(%rdi,%rsi), %r8	#, _37
 233 00af 4889CE   		movq	%rcx, %rsi	# _seed_lsm.374, ivtmp.382
 236      0000
 237              	.L9:
 240              	# Randomisation.h:20:     _seed = _seed * 48271 % 2147483647;
  20:Randomisation.h ****     return _seed;
 242 00b8 4869CA8F 		imulq	$48271, %rdx, %rcx	#, _seed_lsm.374, tmp131
 242      BC0000
 245              	# Randomisation.generated.h:28: 		arr[i].reference = reference + i;
  26:Randomisation.generated.h **** 	{
  27:Randomisation.generated.h **** 		arr[i].key = randomisation::GenerateRandomUint64();
  28:Randomisation.generated.h **** 		arr[i].reference = reference + i;
 247 00bf 48897708 		movq	%rsi, 8(%rdi)	# ivtmp.382, MEM[base: _31, offset: 8B]
 248 00c3 4883C710 		addq	$16, %rdi	#, ivtmp.381
 249 00c7 4883C601 		addq	$1, %rsi	#, ivtmp.382
 253              	# Randomisation.h:20:     _seed = _seed * 48271 % 2147483647;
  20:Randomisation.h ****     return _seed;
 255 00cb 4889C8   		movq	%rcx, %rax	# tmp131, tmp149
 256 00ce 49F7E1   		mulq	%r9	# tmp133
 257 00d1 4889C8   		movq	%rcx, %rax	# tmp131, tmp134
 258 00d4 4829D0   		subq	%rdx, %rax	# tmp132, tmp134
 259 00d7 48D1E8   		shrq	%rax	# tmp135
 260 00da 4801C2   		addq	%rax, %rdx	# tmp135, tmp136
 261 00dd 48C1EA1E 		shrq	$30, %rdx	#, _seed_lsm.374
 262 00e1 4889D0   		movq	%rdx, %rax	# _seed_lsm.374, tmp138
 263 00e4 48C1E01F 		salq	$31, %rax	#, tmp138
 264 00e8 4829D0   		subq	%rdx, %rax	# _seed_lsm.374, tmp139
 265 00eb 4829C1   		subq	%rax, %rcx	# tmp139, tmp131
 268              	# Randomisation.generated.h:27: 		arr[i].key = randomisation::GenerateRandomUint64();
  27:Randomisation.generated.h **** 		arr[i].reference = reference + i;
 270 00ee 48894FF0 		movq	%rcx, -16(%rdi)	# _seed_lsm.374, MEM[base: _31, offset: 0B]
 273              	# Randomisation.h:20:     _seed = _seed * 48271 % 2147483647;
  20:Randomisation.h ****     return _seed;
 275 00f2 4889CA   		movq	%rcx, %rdx	# tmp131, _seed_lsm.374
 278              	# Randomisation.generated.h:25: 	for (int i = 0; i < arraySize; i += 1)
  25:Randomisation.generated.h **** 	{
 280 00f5 4939F8   		cmpq	%rdi, %r8	# ivtmp.381, _37
 281 00f8 75BE     		jne	.L9	#,
 282 00fa 48890D00 		movq	%rcx, _ZN13randomisation5_seedE(%rip)	# _seed_lsm.374, _seed
 282      000000
 283              	.L14:
 285              	# Randomisation.generated.h:30: }
  29:Randomisation.generated.h **** 	}
  30:Randomisation.generated.h **** }
 287 0101 C3       		ret
 291      662E0F1F 
 291      84000000 
 291      0000
 292              		.globl	_ZN13randomisation19GenerateRandomArrayI17Sortable_JumpXchgEEvPT_m
 294              	_ZN13randomisation19GenerateRandomArrayI17Sortable_JumpXchgEEvPT_m:
  31:Randomisation.generated.h **** template<>
  32:Randomisation.generated.h **** void GenerateRandomArray<Sortable_JumpXchg>(Sortable_JumpXchg* arr, size_t arraySize)
  33:Randomisation.generated.h **** {
 300              	# Randomisation.generated.h:34: 	for (int i = 0; i < arraySize; i += 1)
  34:Randomisation.generated.h **** 	for (int i = 0; i < arraySize; i += 1)
 302 0110 4885F6   		testq	%rsi, %rsi	# arraySize
 303 0113 7455     		je	.L22	#,
 304 0115 4C8D04F7 		leaq	(%rdi,%rsi,8), %r8	#, _15
 307              	# Randomisation.h:20:     _seed = _seed * 48271 % 2147483647;
  20:Randomisation.h ****     return _seed;
 309 0119 48BE0500 		movabsq	$8589934597, %rsi	#, tmp100
 309      00000200 
 309      0000
 312      00
 313              	.L17:
 314              	# Randomisation.h:20:     _seed = _seed * 48271 % 2147483647;
  20:Randomisation.h ****     return _seed;
 316 0128 48690D00 		imulq	$48271, _ZN13randomisation5_seedE(%rip), %rcx	#, _seed, tmp97
 316      0000008F 
 316      BC0000
 317 0133 4883C708 		addq	$8, %rdi	#, ivtmp.392
 318 0137 4889C8   		movq	%rcx, %rax	# tmp97, tmp107
 319 013a 48F7E6   		mulq	%rsi	# tmp100
 320 013d 4889C8   		movq	%rcx, %rax	# tmp97, tmp101
 321 0140 4829D0   		subq	%rdx, %rax	# tmp99, tmp101
 322 0143 48D1E8   		shrq	%rax	# tmp102
 323 0146 4801C2   		addq	%rax, %rdx	# tmp102, tmp103
 324 0149 48C1EA1E 		shrq	$30, %rdx	#, _13
 325 014d 4889D0   		movq	%rdx, %rax	# _13, tmp105
 326 0150 48C1E01F 		salq	$31, %rax	#, tmp105
 327 0154 4829D0   		subq	%rdx, %rax	# _13, tmp106
 328 0157 4829C1   		subq	%rax, %rcx	# tmp106, tmp97
 329 015a 48890D00 		movq	%rcx, _ZN13randomisation5_seedE(%rip)	# _13, _seed
 329      000000
 332              	# Randomisation.generated.h:36: 		arr[i].key = randomisation::GenerateRandomUint64();
  35:Randomisation.generated.h **** 	{
  36:Randomisation.generated.h **** 		arr[i].key = randomisation::GenerateRandomUint64();
 334 0161 48894FF8 		movq	%rcx, -8(%rdi)	# _13, MEM[base: _22, offset: 0B]
 335              	# Randomisation.generated.h:34: 	for (int i = 0; i < arraySize; i += 1)
  34:Randomisation.generated.h **** 	{
 337 0165 4939F8   		cmpq	%rdi, %r8	# ivtmp.392, _15
 338 0168 75BE     		jne	.L17	#,
 339              	.L22:
 341              	# Randomisation.generated.h:38: }
  37:Randomisation.generated.h **** 	}
  38:Randomisation.generated.h **** }
 343 016a C3       		ret
 347      00
 348              		.globl	_ZN13randomisation19GenerateRandomArrayI20SortableRef_JumpXchgEEvPT_m
 350              	_ZN13randomisation19GenerateRandomArrayI20SortableRef_JumpXchgEEvPT_m:
  39:Randomisation.generated.h **** template<>
  40:Randomisation.generated.h **** void GenerateRandomArray<SortableRef_JumpXchg>(SortableRef_JumpXchg* arr, size_t arraySize)
  41:Randomisation.generated.h **** {
 357              	# Randomisation.h:20:     _seed = _seed * 48271 % 2147483647;
  20:Randomisation.h ****     return _seed;
 359 0170 48690D00 		imulq	$48271, _ZN13randomisation5_seedE(%rip), %rcx	#, _seed, tmp98
 359      0000008F 
 359      BC0000
 360 017b 49B90500 		movabsq	$8589934597, %r9	#, tmp101
 360      00000200 
 360      0000
 361 0185 4889C8   		movq	%rcx, %rax	# tmp98, tmp126
 362 0188 49F7E1   		mulq	%r9	# tmp101
 363 018b 4889C8   		movq	%rcx, %rax	# tmp98, tmp102
 364 018e 4829D0   		subq	%rdx, %rax	# tmp100, tmp102
 365 0191 48D1E8   		shrq	%rax	# tmp103
 366 0194 4801C2   		addq	%rax, %rdx	# tmp103, tmp104
 367 0197 48C1EA1E 		shrq	$30, %rdx	#, _seed_lsm.394
 368 019b 4889D0   		movq	%rdx, %rax	# _seed_lsm.394, tmp106
 369 019e 48C1E01F 		salq	$31, %rax	#, tmp106
 370 01a2 4829D0   		subq	%rdx, %rax	# _seed_lsm.394, tmp107
 371 01a5 4829C1   		subq	%rax, %rcx	# tmp107, tmp98
 372 01a8 4889CA   		movq	%rcx, %rdx	# tmp98, _seed_lsm.394
 373 01ab 48890D00 		movq	%rcx, _ZN13randomisation5_seedE(%rip)	# _seed_lsm.394, _seed
 373      000000
 378              	# Randomisation.generated.h:43: 	for (int i = 0; i < arraySize; i += 1)
  42:Randomisation.generated.h **** 	uint64_t reference = randomisation::GenerateRandomUint64();
  43:Randomisation.generated.h **** 	for (int i = 0; i < arraySize; i += 1)
 380 01b2 4885F6   		testq	%rsi, %rsi	# arraySize
 381 01b5 745A     		je	.L30	#,
 382 01b7 48C1E604 		salq	$4, %rsi	#, tmp108
 384 01bb 4C8D0437 		leaq	(%rdi,%rsi), %r8	#, _37
 385 01bf 4889CE   		movq	%rcx, %rsi	# _seed_lsm.394, ivtmp.402
 388      0000
 389              	.L25:
 392              	# Randomisation.h:20:     _seed = _seed * 48271 % 2147483647;
  20:Randomisation.h ****     return _seed;
 394 01c8 4869CA8F 		imulq	$48271, %rdx, %rcx	#, _seed_lsm.394, tmp109
 394      BC0000
 397              	# Randomisation.generated.h:46: 		arr[i].reference = reference + i;
  44:Randomisation.generated.h **** 	{
  45:Randomisation.generated.h **** 		arr[i].key = randomisation::GenerateRandomUint64();
  46:Randomisation.generated.h **** 		arr[i].reference = reference + i;
 399 01cf 48897708 		movq	%rsi, 8(%rdi)	# ivtmp.402, MEM[base: _31, offset: 8B]
 400 01d3 4883C710 		addq	$16, %rdi	#, ivtmp.401
 401 01d7 4883C601 		addq	$1, %rsi	#, ivtmp.402
 405              	# Randomisation.h:20:     _seed = _seed * 48271 % 2147483647;
  20:Randomisation.h ****     return _seed;
 407 01db 4889C8   		movq	%rcx, %rax	# tmp109, tmp127
 408 01de 49F7E1   		mulq	%r9	# tmp111
 409 01e1 4889C8   		movq	%rcx, %rax	# tmp109, tmp112
 410 01e4 4829D0   		subq	%rdx, %rax	# tmp110, tmp112
 411 01e7 48D1E8   		shrq	%rax	# tmp113
 412 01ea 4801C2   		addq	%rax, %rdx	# tmp113, tmp114
 413 01ed 48C1EA1E 		shrq	$30, %rdx	#, _seed_lsm.394
 414 01f1 4889D0   		movq	%rdx, %rax	# _seed_lsm.394, tmp116
 415 01f4 48C1E01F 		salq	$31, %rax	#, tmp116
 416 01f8 4829D0   		subq	%rdx, %rax	# _seed_lsm.394, tmp117
 417 01fb 4829C1   		subq	%rax, %rcx	# tmp117, tmp109
 420              	# Randomisation.generated.h:45: 		arr[i].key = randomisation::GenerateRandomUint64();
  45:Randomisation.generated.h **** 		arr[i].reference = reference + i;
 422 01fe 48894FF0 		movq	%rcx, -16(%rdi)	# _seed_lsm.394, MEM[base: _31, offset: 0B]
 425              	# Randomisation.h:20:     _seed = _seed * 48271 % 2147483647;
  20:Randomisation.h ****     return _seed;
 427 0202 4889CA   		movq	%rcx, %rdx	# tmp109, _seed_lsm.394
 430              	# Randomisation.generated.h:43: 	for (int i = 0; i < arraySize; i += 1)
  43:Randomisation.generated.h **** 	{
 432 0205 4939F8   		cmpq	%rdi, %r8	# ivtmp.401, _37
 433 0208 75BE     		jne	.L25	#,
 434 020a 48890D00 		movq	%rcx, _ZN13randomisation5_seedE(%rip)	# _seed_lsm.394, _seed
 434      000000
 435              	.L30:
 437              	# Randomisation.generated.h:48: }
  47:Randomisation.generated.h **** 	}
  48:Randomisation.generated.h **** }
 439 0211 C3       		ret
 443      662E0F1F 
 443      84000000 
 443      0000
 444              		.globl	_ZN13randomisation19GenerateRandomArrayI20Sortable_TwoCmovTempEEvPT_m
 446              	_ZN13randomisation19GenerateRandomArrayI20Sortable_TwoCmovTempEEvPT_m:
  49:Randomisation.generated.h **** template<>
  50:Randomisation.generated.h **** void GenerateRandomArray<Sortable_TwoCmovTemp>(Sortable_TwoCmovTemp* arr, size_t arraySize)
  51:Randomisation.generated.h **** {
 452              	# Randomisation.generated.h:52: 	for (int i = 0; i < arraySize; i += 1)
  52:Randomisation.generated.h **** 	for (int i = 0; i < arraySize; i += 1)
 454 0220 4885F6   		testq	%rsi, %rsi	# arraySize
 455 0223 7455     		je	.L38	#,
 456 0225 4C8D04F7 		leaq	(%rdi,%rsi,8), %r8	#, _15
 459              	# Randomisation.h:20:     _seed = _seed * 48271 % 2147483647;
  20:Randomisation.h ****     return _seed;
 461 0229 48BE0500 		movabsq	$8589934597, %rsi	#, tmp100
 461      00000200 
 461      0000
 464      00
 465              	.L33:
 466              	# Randomisation.h:20:     _seed = _seed * 48271 % 2147483647;
  20:Randomisation.h ****     return _seed;
 468 0238 48690D00 		imulq	$48271, _ZN13randomisation5_seedE(%rip), %rcx	#, _seed, tmp97
 468      0000008F 
 468      BC0000
 469 0243 4883C708 		addq	$8, %rdi	#, ivtmp.411
 470 0247 4889C8   		movq	%rcx, %rax	# tmp97, tmp107
 471 024a 48F7E6   		mulq	%rsi	# tmp100
 472 024d 4889C8   		movq	%rcx, %rax	# tmp97, tmp101
 473 0250 4829D0   		subq	%rdx, %rax	# tmp99, tmp101
 474 0253 48D1E8   		shrq	%rax	# tmp102
 475 0256 4801C2   		addq	%rax, %rdx	# tmp102, tmp103
 476 0259 48C1EA1E 		shrq	$30, %rdx	#, _13
 477 025d 4889D0   		movq	%rdx, %rax	# _13, tmp105
 478 0260 48C1E01F 		salq	$31, %rax	#, tmp105
 479 0264 4829D0   		subq	%rdx, %rax	# _13, tmp106
 480 0267 4829C1   		subq	%rax, %rcx	# tmp106, tmp97
 481 026a 48890D00 		movq	%rcx, _ZN13randomisation5_seedE(%rip)	# _13, _seed
 481      000000
 484              	# Randomisation.generated.h:54: 		arr[i].key = randomisation::GenerateRandomUint64();
  53:Randomisation.generated.h **** 	{
  54:Randomisation.generated.h **** 		arr[i].key = randomisation::GenerateRandomUint64();
 486 0271 48894FF8 		movq	%rcx, -8(%rdi)	# _13, MEM[base: _22, offset: 0B]
 487              	# Randomisation.generated.h:52: 	for (int i = 0; i < arraySize; i += 1)
  52:Randomisation.generated.h **** 	{
 489 0275 4939F8   		cmpq	%rdi, %r8	# ivtmp.411, _15
 490 0278 75BE     		jne	.L33	#,
 491              	.L38:
 493              	# Randomisation.generated.h:56: }
  55:Randomisation.generated.h **** 	}
  56:Randomisation.generated.h **** }
 495 027a C3       		ret
 499      00
 500              		.globl	_ZN13randomisation19GenerateRandomArrayI24SortableRef_FourCmovTempEEvPT_m
 502              	_ZN13randomisation19GenerateRandomArrayI24SortableRef_FourCmovTempEEvPT_m:
  57:Randomisation.generated.h **** template<>
  58:Randomisation.generated.h **** void GenerateRandomArray<SortableRef_FourCmovTemp>(SortableRef_FourCmovTemp* arr, size_t arraySize)
  59:Randomisation.generated.h **** {
 509              	# Randomisation.h:20:     _seed = _seed * 48271 % 2147483647;
  20:Randomisation.h ****     return _seed;
 511 0280 48690D00 		imulq	$48271, _ZN13randomisation5_seedE(%rip), %rcx	#, _seed, tmp98
 511      0000008F 
 511      BC0000
 512 028b 49B90500 		movabsq	$8589934597, %r9	#, tmp101
 512      00000200 
 512      0000
 513 0295 4889C8   		movq	%rcx, %rax	# tmp98, tmp126
 514 0298 49F7E1   		mulq	%r9	# tmp101
 515 029b 4889C8   		movq	%rcx, %rax	# tmp98, tmp102
 516 029e 4829D0   		subq	%rdx, %rax	# tmp100, tmp102
 517 02a1 48D1E8   		shrq	%rax	# tmp103
 518 02a4 4801C2   		addq	%rax, %rdx	# tmp103, tmp104
 519 02a7 48C1EA1E 		shrq	$30, %rdx	#, _seed_lsm.413
 520 02ab 4889D0   		movq	%rdx, %rax	# _seed_lsm.413, tmp106
 521 02ae 48C1E01F 		salq	$31, %rax	#, tmp106
 522 02b2 4829D0   		subq	%rdx, %rax	# _seed_lsm.413, tmp107
 523 02b5 4829C1   		subq	%rax, %rcx	# tmp107, tmp98
 524 02b8 4889CA   		movq	%rcx, %rdx	# tmp98, _seed_lsm.413
 525 02bb 48890D00 		movq	%rcx, _ZN13randomisation5_seedE(%rip)	# _seed_lsm.413, _seed
 525      000000
 530              	# Randomisation.generated.h:61: 	for (int i = 0; i < arraySize; i += 1)
  60:Randomisation.generated.h **** 	uint64_t reference = randomisation::GenerateRandomUint64();
  61:Randomisation.generated.h **** 	for (int i = 0; i < arraySize; i += 1)
 532 02c2 4885F6   		testq	%rsi, %rsi	# arraySize
 533 02c5 745A     		je	.L46	#,
 534 02c7 48C1E604 		salq	$4, %rsi	#, tmp108
 536 02cb 4C8D0437 		leaq	(%rdi,%rsi), %r8	#, _37
 537 02cf 4889CE   		movq	%rcx, %rsi	# _seed_lsm.413, ivtmp.421
 540      0000
 541              	.L41:
 544              	# Randomisation.h:20:     _seed = _seed * 48271 % 2147483647;
  20:Randomisation.h ****     return _seed;
 546 02d8 4869CA8F 		imulq	$48271, %rdx, %rcx	#, _seed_lsm.413, tmp109
 546      BC0000
 549              	# Randomisation.generated.h:64: 		arr[i].reference = reference + i;
  62:Randomisation.generated.h **** 	{
  63:Randomisation.generated.h **** 		arr[i].key = randomisation::GenerateRandomUint64();
  64:Randomisation.generated.h **** 		arr[i].reference = reference + i;
 551 02df 48897708 		movq	%rsi, 8(%rdi)	# ivtmp.421, MEM[base: _31, offset: 8B]
 552 02e3 4883C710 		addq	$16, %rdi	#, ivtmp.420
 553 02e7 4883C601 		addq	$1, %rsi	#, ivtmp.421
 557              	# Randomisation.h:20:     _seed = _seed * 48271 % 2147483647;
  20:Randomisation.h ****     return _seed;
 559 02eb 4889C8   		movq	%rcx, %rax	# tmp109, tmp127
 560 02ee 49F7E1   		mulq	%r9	# tmp111
 561 02f1 4889C8   		movq	%rcx, %rax	# tmp109, tmp112
 562 02f4 4829D0   		subq	%rdx, %rax	# tmp110, tmp112
 563 02f7 48D1E8   		shrq	%rax	# tmp113
 564 02fa 4801C2   		addq	%rax, %rdx	# tmp113, tmp114
 565 02fd 48C1EA1E 		shrq	$30, %rdx	#, _seed_lsm.413
 566 0301 4889D0   		movq	%rdx, %rax	# _seed_lsm.413, tmp116
 567 0304 48C1E01F 		salq	$31, %rax	#, tmp116
 568 0308 4829D0   		subq	%rdx, %rax	# _seed_lsm.413, tmp117
 569 030b 4829C1   		subq	%rax, %rcx	# tmp117, tmp109
 572              	# Randomisation.generated.h:63: 		arr[i].key = randomisation::GenerateRandomUint64();
  63:Randomisation.generated.h **** 		arr[i].reference = reference + i;
 574 030e 48894FF0 		movq	%rcx, -16(%rdi)	# _seed_lsm.413, MEM[base: _31, offset: 0B]
 577              	# Randomisation.h:20:     _seed = _seed * 48271 % 2147483647;
  20:Randomisation.h ****     return _seed;
 579 0312 4889CA   		movq	%rcx, %rdx	# tmp109, _seed_lsm.413
 582              	# Randomisation.generated.h:61: 	for (int i = 0; i < arraySize; i += 1)
  61:Randomisation.generated.h **** 	{
 584 0315 4939F8   		cmpq	%rdi, %r8	# ivtmp.420, _37
 585 0318 75BE     		jne	.L41	#,
 586 031a 48890D00 		movq	%rcx, _ZN13randomisation5_seedE(%rip)	# _seed_lsm.413, _seed
 586      000000
 587              	.L46:
 589              	# Randomisation.generated.h:66: }
  65:Randomisation.generated.h **** 	}
  66:Randomisation.generated.h **** }
 591 0321 C3       		ret
 595      662E0F1F 
 595      84000000 
 595      0000
 596              		.globl	_ZN13randomisation19GenerateRandomArrayI30SortableRef_FourCmovTemp_SplitEEvPT_m
 598              	_ZN13randomisation19GenerateRandomArrayI30SortableRef_FourCmovTemp_SplitEEvPT_m:
  67:Randomisation.generated.h **** template<>
  68:Randomisation.generated.h **** void GenerateRandomArray<SortableRef_FourCmovTemp_Split>(SortableRef_FourCmovTemp_Split* arr, size_
  69:Randomisation.generated.h **** {
 605              	# Randomisation.h:20:     _seed = _seed * 48271 % 2147483647;
  20:Randomisation.h ****     return _seed;
 607 0330 48690D00 		imulq	$48271, _ZN13randomisation5_seedE(%rip), %rcx	#, _seed, tmp98
 607      0000008F 
 607      BC0000
 608 033b 49B90500 		movabsq	$8589934597, %r9	#, tmp101
 608      00000200 
 608      0000
 609 0345 4889C8   		movq	%rcx, %rax	# tmp98, tmp126
 610 0348 49F7E1   		mulq	%r9	# tmp101
 611 034b 4889C8   		movq	%rcx, %rax	# tmp98, tmp102
 612 034e 4829D0   		subq	%rdx, %rax	# tmp100, tmp102
 613 0351 48D1E8   		shrq	%rax	# tmp103
 614 0354 4801C2   		addq	%rax, %rdx	# tmp103, tmp104
 615 0357 48C1EA1E 		shrq	$30, %rdx	#, _seed_lsm.425
 616 035b 4889D0   		movq	%rdx, %rax	# _seed_lsm.425, tmp106
 617 035e 48C1E01F 		salq	$31, %rax	#, tmp106
 618 0362 4829D0   		subq	%rdx, %rax	# _seed_lsm.425, tmp107
 619 0365 4829C1   		subq	%rax, %rcx	# tmp107, tmp98
 620 0368 4889CA   		movq	%rcx, %rdx	# tmp98, _seed_lsm.425
 621 036b 48890D00 		movq	%rcx, _ZN13randomisation5_seedE(%rip)	# _seed_lsm.425, _seed
 621      000000
 626              	# Randomisation.generated.h:71: 	for (int i = 0; i < arraySize; i += 1)
  70:Randomisation.generated.h **** 	uint64_t reference = randomisation::GenerateRandomUint64();
  71:Randomisation.generated.h **** 	for (int i = 0; i < arraySize; i += 1)
 628 0372 4885F6   		testq	%rsi, %rsi	# arraySize
 629 0375 745A     		je	.L54	#,
 630 0377 48C1E604 		salq	$4, %rsi	#, tmp108
 632 037b 4C8D0437 		leaq	(%rdi,%rsi), %r8	#, _37
 633 037f 4889CE   		movq	%rcx, %rsi	# _seed_lsm.425, ivtmp.433
 636      0000
 637              	.L49:
 640              	# Randomisation.h:20:     _seed = _seed * 48271 % 2147483647;
  20:Randomisation.h ****     return _seed;
 642 0388 4869CA8F 		imulq	$48271, %rdx, %rcx	#, _seed_lsm.425, tmp109
 642      BC0000
 645              	# Randomisation.generated.h:74: 		arr[i].reference = reference + i;
  72:Randomisation.generated.h **** 	{
  73:Randomisation.generated.h **** 		arr[i].key = randomisation::GenerateRandomUint64();
  74:Randomisation.generated.h **** 		arr[i].reference = reference + i;
 647 038f 48897708 		movq	%rsi, 8(%rdi)	# ivtmp.433, MEM[base: _31, offset: 8B]
 648 0393 4883C710 		addq	$16, %rdi	#, ivtmp.432
 649 0397 4883C601 		addq	$1, %rsi	#, ivtmp.433
 653              	# Randomisation.h:20:     _seed = _seed * 48271 % 2147483647;
  20:Randomisation.h ****     return _seed;
 655 039b 4889C8   		movq	%rcx, %rax	# tmp109, tmp127
 656 039e 49F7E1   		mulq	%r9	# tmp111
 657 03a1 4889C8   		movq	%rcx, %rax	# tmp109, tmp112
 658 03a4 4829D0   		subq	%rdx, %rax	# tmp110, tmp112
 659 03a7 48D1E8   		shrq	%rax	# tmp113
 660 03aa 4801C2   		addq	%rax, %rdx	# tmp113, tmp114
 661 03ad 48C1EA1E 		shrq	$30, %rdx	#, _seed_lsm.425
 662 03b1 4889D0   		movq	%rdx, %rax	# _seed_lsm.425, tmp116
 663 03b4 48C1E01F 		salq	$31, %rax	#, tmp116
 664 03b8 4829D0   		subq	%rdx, %rax	# _seed_lsm.425, tmp117
 665 03bb 4829C1   		subq	%rax, %rcx	# tmp117, tmp109
 668              	# Randomisation.generated.h:73: 		arr[i].key = randomisation::GenerateRandomUint64();
  73:Randomisation.generated.h **** 		arr[i].reference = reference + i;
 670 03be 48894FF0 		movq	%rcx, -16(%rdi)	# _seed_lsm.425, MEM[base: _31, offset: 0B]
 673              	# Randomisation.h:20:     _seed = _seed * 48271 % 2147483647;
  20:Randomisation.h ****     return _seed;
 675 03c2 4889CA   		movq	%rcx, %rdx	# tmp109, _seed_lsm.425
 678              	# Randomisation.generated.h:71: 	for (int i = 0; i < arraySize; i += 1)
  71:Randomisation.generated.h **** 	{
 680 03c5 4939F8   		cmpq	%rdi, %r8	# ivtmp.432, _37
 681 03c8 75BE     		jne	.L49	#,
 682 03ca 48890D00 		movq	%rcx, _ZN13randomisation5_seedE(%rip)	# _seed_lsm.425, _seed
 682      000000
 683              	.L54:
 685              	# Randomisation.generated.h:76: }
  75:Randomisation.generated.h **** 	}
  76:Randomisation.generated.h **** }
 687 03d1 C3       		ret
 691      662E0F1F 
 691      84000000 
 691      0000
 692              		.globl	_ZN13randomisation19GenerateRandomArrayI30Sortable_ThreeCmovRegisterTempEEvPT_m
 694              	_ZN13randomisation19GenerateRandomArrayI30Sortable_ThreeCmovRegisterTempEEvPT_m:
  77:Randomisation.generated.h **** template<>
  78:Randomisation.generated.h **** void GenerateRandomArray<Sortable_ThreeCmovRegisterTemp>(Sortable_ThreeCmovRegisterTemp* arr, size_
  79:Randomisation.generated.h **** {
 700              	# Randomisation.generated.h:80: 	for (int i = 0; i < arraySize; i += 1)
  80:Randomisation.generated.h **** 	for (int i = 0; i < arraySize; i += 1)
 702 03e0 4885F6   		testq	%rsi, %rsi	# arraySize
 703 03e3 7455     		je	.L62	#,
 704 03e5 4C8D04F7 		leaq	(%rdi,%rsi,8), %r8	#, _15
 707              	# Randomisation.h:20:     _seed = _seed * 48271 % 2147483647;
  20:Randomisation.h ****     return _seed;
 709 03e9 48BE0500 		movabsq	$8589934597, %rsi	#, tmp100
 709      00000200 
 709      0000
 712      00
 713              	.L57:
 714              	# Randomisation.h:20:     _seed = _seed * 48271 % 2147483647;
  20:Randomisation.h ****     return _seed;
 716 03f8 48690D00 		imulq	$48271, _ZN13randomisation5_seedE(%rip), %rcx	#, _seed, tmp97
 716      0000008F 
 716      BC0000
 717 0403 4883C708 		addq	$8, %rdi	#, ivtmp.442
 718 0407 4889C8   		movq	%rcx, %rax	# tmp97, tmp107
 719 040a 48F7E6   		mulq	%rsi	# tmp100
 720 040d 4889C8   		movq	%rcx, %rax	# tmp97, tmp101
 721 0410 4829D0   		subq	%rdx, %rax	# tmp99, tmp101
 722 0413 48D1E8   		shrq	%rax	# tmp102
 723 0416 4801C2   		addq	%rax, %rdx	# tmp102, tmp103
 724 0419 48C1EA1E 		shrq	$30, %rdx	#, _13
 725 041d 4889D0   		movq	%rdx, %rax	# _13, tmp105
 726 0420 48C1E01F 		salq	$31, %rax	#, tmp105
 727 0424 4829D0   		subq	%rdx, %rax	# _13, tmp106
 728 0427 4829C1   		subq	%rax, %rcx	# tmp106, tmp97
 729 042a 48890D00 		movq	%rcx, _ZN13randomisation5_seedE(%rip)	# _13, _seed
 729      000000
 732              	# Randomisation.generated.h:82: 		arr[i].key = randomisation::GenerateRandomUint64();
  81:Randomisation.generated.h **** 	{
  82:Randomisation.generated.h **** 		arr[i].key = randomisation::GenerateRandomUint64();
 734 0431 48894FF8 		movq	%rcx, -8(%rdi)	# _13, MEM[base: _22, offset: 0B]
 735              	# Randomisation.generated.h:80: 	for (int i = 0; i < arraySize; i += 1)
  80:Randomisation.generated.h **** 	{
 737 0435 4939F8   		cmpq	%rdi, %r8	# ivtmp.442, _15
 738 0438 75BE     		jne	.L57	#,
 739              	.L62:
 741              	# Randomisation.generated.h:84: }
  83:Randomisation.generated.h **** 	}
  84:Randomisation.generated.h **** }
 743 043a C3       		ret
 747      00
 748              		.globl	_ZN13randomisation19GenerateRandomArrayI31SortableRef_SixCmovRegisterTempEEvPT_m
 750              	_ZN13randomisation19GenerateRandomArrayI31SortableRef_SixCmovRegisterTempEEvPT_m:
  85:Randomisation.generated.h **** template<>
  86:Randomisation.generated.h **** void GenerateRandomArray<SortableRef_SixCmovRegisterTemp>(SortableRef_SixCmovRegisterTemp* arr, siz
  87:Randomisation.generated.h **** {
 757              	# Randomisation.h:20:     _seed = _seed * 48271 % 2147483647;
  20:Randomisation.h ****     return _seed;
 759 0440 48690D00 		imulq	$48271, _ZN13randomisation5_seedE(%rip), %rcx	#, _seed, tmp98
 759      0000008F 
 759      BC0000
 760 044b 49B90500 		movabsq	$8589934597, %r9	#, tmp101
 760      00000200 
 760      0000
 761 0455 4889C8   		movq	%rcx, %rax	# tmp98, tmp126
 762 0458 49F7E1   		mulq	%r9	# tmp101
 763 045b 4889C8   		movq	%rcx, %rax	# tmp98, tmp102
 764 045e 4829D0   		subq	%rdx, %rax	# tmp100, tmp102
 765 0461 48D1E8   		shrq	%rax	# tmp103
 766 0464 4801C2   		addq	%rax, %rdx	# tmp103, tmp104
 767 0467 48C1EA1E 		shrq	$30, %rdx	#, _seed_lsm.444
 768 046b 4889D0   		movq	%rdx, %rax	# _seed_lsm.444, tmp106
 769 046e 48C1E01F 		salq	$31, %rax	#, tmp106
 770 0472 4829D0   		subq	%rdx, %rax	# _seed_lsm.444, tmp107
 771 0475 4829C1   		subq	%rax, %rcx	# tmp107, tmp98
 772 0478 4889CA   		movq	%rcx, %rdx	# tmp98, _seed_lsm.444
 773 047b 48890D00 		movq	%rcx, _ZN13randomisation5_seedE(%rip)	# _seed_lsm.444, _seed
 773      000000
 778              	# Randomisation.generated.h:89: 	for (int i = 0; i < arraySize; i += 1)
  88:Randomisation.generated.h **** 	uint64_t reference = randomisation::GenerateRandomUint64();
  89:Randomisation.generated.h **** 	for (int i = 0; i < arraySize; i += 1)
 780 0482 4885F6   		testq	%rsi, %rsi	# arraySize
 781 0485 745A     		je	.L70	#,
 782 0487 48C1E604 		salq	$4, %rsi	#, tmp108
 784 048b 4C8D0437 		leaq	(%rdi,%rsi), %r8	#, _37
 785 048f 4889CE   		movq	%rcx, %rsi	# _seed_lsm.444, ivtmp.452
 788      0000
 789              	.L65:
 792              	# Randomisation.h:20:     _seed = _seed * 48271 % 2147483647;
  20:Randomisation.h ****     return _seed;
 794 0498 4869CA8F 		imulq	$48271, %rdx, %rcx	#, _seed_lsm.444, tmp109
 794      BC0000
 797              	# Randomisation.generated.h:92: 		arr[i].reference = reference + i;
  90:Randomisation.generated.h **** 	{
  91:Randomisation.generated.h **** 		arr[i].key = randomisation::GenerateRandomUint64();
  92:Randomisation.generated.h **** 		arr[i].reference = reference + i;
 799 049f 48897708 		movq	%rsi, 8(%rdi)	# ivtmp.452, MEM[base: _31, offset: 8B]
 800 04a3 4883C710 		addq	$16, %rdi	#, ivtmp.451
 801 04a7 4883C601 		addq	$1, %rsi	#, ivtmp.452
 805              	# Randomisation.h:20:     _seed = _seed * 48271 % 2147483647;
  20:Randomisation.h ****     return _seed;
 807 04ab 4889C8   		movq	%rcx, %rax	# tmp109, tmp127
 808 04ae 49F7E1   		mulq	%r9	# tmp111
 809 04b1 4889C8   		movq	%rcx, %rax	# tmp109, tmp112
 810 04b4 4829D0   		subq	%rdx, %rax	# tmp110, tmp112
 811 04b7 48D1E8   		shrq	%rax	# tmp113
 812 04ba 4801C2   		addq	%rax, %rdx	# tmp113, tmp114
 813 04bd 48C1EA1E 		shrq	$30, %rdx	#, _seed_lsm.444
 814 04c1 4889D0   		movq	%rdx, %rax	# _seed_lsm.444, tmp116
 815 04c4 48C1E01F 		salq	$31, %rax	#, tmp116
 816 04c8 4829D0   		subq	%rdx, %rax	# _seed_lsm.444, tmp117
 817 04cb 4829C1   		subq	%rax, %rcx	# tmp117, tmp109
 820              	# Randomisation.generated.h:91: 		arr[i].key = randomisation::GenerateRandomUint64();
  91:Randomisation.generated.h **** 		arr[i].reference = reference + i;
 822 04ce 48894FF0 		movq	%rcx, -16(%rdi)	# _seed_lsm.444, MEM[base: _31, offset: 0B]
 825              	# Randomisation.h:20:     _seed = _seed * 48271 % 2147483647;
  20:Randomisation.h ****     return _seed;
 827 04d2 4889CA   		movq	%rcx, %rdx	# tmp109, _seed_lsm.444
 830              	# Randomisation.generated.h:89: 	for (int i = 0; i < arraySize; i += 1)
  89:Randomisation.generated.h **** 	{
 832 04d5 4939F8   		cmpq	%rdi, %r8	# ivtmp.451, _37
 833 04d8 75BE     		jne	.L65	#,
 834 04da 48890D00 		movq	%rcx, _ZN13randomisation5_seedE(%rip)	# _seed_lsm.444, _seed
 834      000000
 835              	.L70:
 837              	# Randomisation.generated.h:94: }
  93:Randomisation.generated.h **** 	}
  94:Randomisation.generated.h **** }
 839 04e1 C3       		ret
 843      662E0F1F 
 843      84000000 
 843      0000
 844              		.globl	_ZN13randomisation19GenerateRandomArrayI24SortableRef_ClangVersionEEvPT_m
 846              	_ZN13randomisation19GenerateRandomArrayI24SortableRef_ClangVersionEEvPT_m:
  95:Randomisation.generated.h **** template<>
  96:Randomisation.generated.h **** void GenerateRandomArray<SortableRef_ClangVersion>(SortableRef_ClangVersion* arr, size_t arraySize)
  97:Randomisation.generated.h **** {
 853              	# Randomisation.h:20:     _seed = _seed * 48271 % 2147483647;
  20:Randomisation.h ****     return _seed;
 855 04f0 48690D00 		imulq	$48271, _ZN13randomisation5_seedE(%rip), %rcx	#, _seed, tmp98
 855      0000008F 
 855      BC0000
 856 04fb 49B90500 		movabsq	$8589934597, %r9	#, tmp101
 856      00000200 
 856      0000
 857 0505 4889C8   		movq	%rcx, %rax	# tmp98, tmp126
 858 0508 49F7E1   		mulq	%r9	# tmp101
 859 050b 4889C8   		movq	%rcx, %rax	# tmp98, tmp102
 860 050e 4829D0   		subq	%rdx, %rax	# tmp100, tmp102
 861 0511 48D1E8   		shrq	%rax	# tmp103
 862 0514 4801C2   		addq	%rax, %rdx	# tmp103, tmp104
 863 0517 48C1EA1E 		shrq	$30, %rdx	#, _seed_lsm.456
 864 051b 4889D0   		movq	%rdx, %rax	# _seed_lsm.456, tmp106
 865 051e 48C1E01F 		salq	$31, %rax	#, tmp106
 866 0522 4829D0   		subq	%rdx, %rax	# _seed_lsm.456, tmp107
 867 0525 4829C1   		subq	%rax, %rcx	# tmp107, tmp98
 868 0528 4889CA   		movq	%rcx, %rdx	# tmp98, _seed_lsm.456
 869 052b 48890D00 		movq	%rcx, _ZN13randomisation5_seedE(%rip)	# _seed_lsm.456, _seed
 869      000000
 874              	# Randomisation.generated.h:99: 	for (int i = 0; i < arraySize; i += 1)
  98:Randomisation.generated.h **** 	uint64_t reference = randomisation::GenerateRandomUint64();
  99:Randomisation.generated.h **** 	for (int i = 0; i < arraySize; i += 1)
 876 0532 4885F6   		testq	%rsi, %rsi	# arraySize
 877 0535 745A     		je	.L78	#,
 878 0537 48C1E604 		salq	$4, %rsi	#, tmp108
 880 053b 4C8D0437 		leaq	(%rdi,%rsi), %r8	#, _37
 881 053f 4889CE   		movq	%rcx, %rsi	# _seed_lsm.456, ivtmp.464
 884      0000
 885              	.L73:
 888              	# Randomisation.h:20:     _seed = _seed * 48271 % 2147483647;
  20:Randomisation.h ****     return _seed;
 890 0548 4869CA8F 		imulq	$48271, %rdx, %rcx	#, _seed_lsm.456, tmp109
 890      BC0000
 893              	# Randomisation.generated.h:102: 		arr[i].reference = reference + i;
 100:Randomisation.generated.h **** 	{
 101:Randomisation.generated.h **** 		arr[i].key = randomisation::GenerateRandomUint64();
 102:Randomisation.generated.h **** 		arr[i].reference = reference + i;
 895 054f 48897708 		movq	%rsi, 8(%rdi)	# ivtmp.464, MEM[base: _31, offset: 8B]
 896 0553 4883C710 		addq	$16, %rdi	#, ivtmp.463
 897 0557 4883C601 		addq	$1, %rsi	#, ivtmp.464
 901              	# Randomisation.h:20:     _seed = _seed * 48271 % 2147483647;
  20:Randomisation.h ****     return _seed;
 903 055b 4889C8   		movq	%rcx, %rax	# tmp109, tmp127
 904 055e 49F7E1   		mulq	%r9	# tmp111
 905 0561 4889C8   		movq	%rcx, %rax	# tmp109, tmp112
 906 0564 4829D0   		subq	%rdx, %rax	# tmp110, tmp112
 907 0567 48D1E8   		shrq	%rax	# tmp113
 908 056a 4801C2   		addq	%rax, %rdx	# tmp113, tmp114
 909 056d 48C1EA1E 		shrq	$30, %rdx	#, _seed_lsm.456
 910 0571 4889D0   		movq	%rdx, %rax	# _seed_lsm.456, tmp116
 911 0574 48C1E01F 		salq	$31, %rax	#, tmp116
 912 0578 4829D0   		subq	%rdx, %rax	# _seed_lsm.456, tmp117
 913 057b 4829C1   		subq	%rax, %rcx	# tmp117, tmp109
 916              	# Randomisation.generated.h:101: 		arr[i].key = randomisation::GenerateRandomUint64();
 101:Randomisation.generated.h **** 		arr[i].reference = reference + i;
 918 057e 48894FF0 		movq	%rcx, -16(%rdi)	# _seed_lsm.456, MEM[base: _31, offset: 0B]
 921              	# Randomisation.h:20:     _seed = _seed * 48271 % 2147483647;
  20:Randomisation.h ****     return _seed;
 923 0582 4889CA   		movq	%rcx, %rdx	# tmp109, _seed_lsm.456
 926              	# Randomisation.generated.h:99: 	for (int i = 0; i < arraySize; i += 1)
  99:Randomisation.generated.h **** 	{
 928 0585 4939F8   		cmpq	%rdi, %r8	# ivtmp.463, _37
 929 0588 75BE     		jne	.L73	#,
 930 058a 48890D00 		movq	%rcx, _ZN13randomisation5_seedE(%rip)	# _seed_lsm.456, _seed
 930      000000
 931              	.L78:
 933              	# Randomisation.generated.h:104: }
 103:Randomisation.generated.h **** 	}
 104:Randomisation.generated.h **** }
 935 0591 C3       		ret
 939      662E0F1F 
 939      84000000 
 939      0000
 940              		.globl	_ZN13randomisation19GenerateRandomArrayI15SortableRef_TieEEvPT_m
 942              	_ZN13randomisation19GenerateRandomArrayI15SortableRef_TieEEvPT_m:
 105:Randomisation.generated.h **** template<>
 106:Randomisation.generated.h **** void GenerateRandomArray<SortableRef_Tie>(SortableRef_Tie* arr, size_t arraySize)
 107:Randomisation.generated.h **** {
 949              	# Randomisation.h:20:     _seed = _seed * 48271 % 2147483647;
  20:Randomisation.h ****     return _seed;
 951 05a0 48690D00 		imulq	$48271, _ZN13randomisation5_seedE(%rip), %rcx	#, _seed, tmp98
 951      0000008F 
 951      BC0000
 952 05ab 49B90500 		movabsq	$8589934597, %r9	#, tmp101
 952      00000200 
 952      0000
 953 05b5 4889C8   		movq	%rcx, %rax	# tmp98, tmp126
 954 05b8 49F7E1   		mulq	%r9	# tmp101
 955 05bb 4889C8   		movq	%rcx, %rax	# tmp98, tmp102
 956 05be 4829D0   		subq	%rdx, %rax	# tmp100, tmp102
 957 05c1 48D1E8   		shrq	%rax	# tmp103
 958 05c4 4801C2   		addq	%rax, %rdx	# tmp103, tmp104
 959 05c7 48C1EA1E 		shrq	$30, %rdx	#, _seed_lsm.468
 960 05cb 4889D0   		movq	%rdx, %rax	# _seed_lsm.468, tmp106
 961 05ce 48C1E01F 		salq	$31, %rax	#, tmp106
 962 05d2 4829D0   		subq	%rdx, %rax	# _seed_lsm.468, tmp107
 963 05d5 4829C1   		subq	%rax, %rcx	# tmp107, tmp98
 964 05d8 4889CA   		movq	%rcx, %rdx	# tmp98, _seed_lsm.468
 965 05db 48890D00 		movq	%rcx, _ZN13randomisation5_seedE(%rip)	# _seed_lsm.468, _seed
 965      000000
 970              	# Randomisation.generated.h:109: 	for (int i = 0; i < arraySize; i += 1)
 108:Randomisation.generated.h **** 	uint64_t reference = randomisation::GenerateRandomUint64();
 109:Randomisation.generated.h **** 	for (int i = 0; i < arraySize; i += 1)
 972 05e2 4885F6   		testq	%rsi, %rsi	# arraySize
 973 05e5 745A     		je	.L86	#,
 974 05e7 48C1E604 		salq	$4, %rsi	#, tmp108
 976 05eb 4C8D0437 		leaq	(%rdi,%rsi), %r8	#, _37
 977 05ef 4889CE   		movq	%rcx, %rsi	# _seed_lsm.468, ivtmp.476
 980      0000
 981              	.L81:
 984              	# Randomisation.h:20:     _seed = _seed * 48271 % 2147483647;
  20:Randomisation.h ****     return _seed;
 986 05f8 4869CA8F 		imulq	$48271, %rdx, %rcx	#, _seed_lsm.468, tmp109
 986      BC0000
 989              	# Randomisation.generated.h:112: 		arr[i].reference = reference + i;
 110:Randomisation.generated.h **** 	{
 111:Randomisation.generated.h **** 		arr[i].key = randomisation::GenerateRandomUint64();
 112:Randomisation.generated.h **** 		arr[i].reference = reference + i;
 991 05ff 48897708 		movq	%rsi, 8(%rdi)	# ivtmp.476, MEM[base: _31, offset: 8B]
 992 0603 4883C710 		addq	$16, %rdi	#, ivtmp.475
 993 0607 4883C601 		addq	$1, %rsi	#, ivtmp.476
 997              	# Randomisation.h:20:     _seed = _seed * 48271 % 2147483647;
  20:Randomisation.h ****     return _seed;
 999 060b 4889C8   		movq	%rcx, %rax	# tmp109, tmp127
 1000 060e 49F7E1   		mulq	%r9	# tmp111
 1001 0611 4889C8   		movq	%rcx, %rax	# tmp109, tmp112
 1002 0614 4829D0   		subq	%rdx, %rax	# tmp110, tmp112
 1003 0617 48D1E8   		shrq	%rax	# tmp113
 1004 061a 4801C2   		addq	%rax, %rdx	# tmp113, tmp114
 1005 061d 48C1EA1E 		shrq	$30, %rdx	#, _seed_lsm.468
 1006 0621 4889D0   		movq	%rdx, %rax	# _seed_lsm.468, tmp116
 1007 0624 48C1E01F 		salq	$31, %rax	#, tmp116
 1008 0628 4829D0   		subq	%rdx, %rax	# _seed_lsm.468, tmp117
 1009 062b 4829C1   		subq	%rax, %rcx	# tmp117, tmp109
 1012              	# Randomisation.generated.h:111: 		arr[i].key = randomisation::GenerateRandomUint64();
 111:Randomisation.generated.h **** 		arr[i].reference = reference + i;
 1014 062e 48894FF0 		movq	%rcx, -16(%rdi)	# _seed_lsm.468, MEM[base: _31, offset: 0B]
 1017              	# Randomisation.h:20:     _seed = _seed * 48271 % 2147483647;
  20:Randomisation.h ****     return _seed;
 1019 0632 4889CA   		movq	%rcx, %rdx	# tmp109, _seed_lsm.468
 1022              	# Randomisation.generated.h:109: 	for (int i = 0; i < arraySize; i += 1)
 109:Randomisation.generated.h **** 	{
 1024 0635 4939F8   		cmpq	%rdi, %r8	# ivtmp.475, _37
 1025 0638 75BE     		jne	.L81	#,
 1026 063a 48890D00 		movq	%rcx, _ZN13randomisation5_seedE(%rip)	# _seed_lsm.468, _seed
 1026      000000
 1027              	.L86:
 1029              	# Randomisation.generated.h:114: }
 113:Randomisation.generated.h **** 	}
 114:Randomisation.generated.h **** }
 1031 0641 C3       		ret
 1035      662E0F1F 
 1035      84000000 
 1035      0000
 1036              		.globl	_ZN13randomisation19GenerateRandomArrayI17SortableRef_QMarkEEvPT_m
 1038              	_ZN13randomisation19GenerateRandomArrayI17SortableRef_QMarkEEvPT_m:
 115:Randomisation.generated.h **** template<>
 116:Randomisation.generated.h **** void GenerateRandomArray<SortableRef_QMark>(SortableRef_QMark* arr, size_t arraySize)
 117:Randomisation.generated.h **** {
 1045              	# Randomisation.h:20:     _seed = _seed * 48271 % 2147483647;
  20:Randomisation.h ****     return _seed;
 1047 0650 48690D00 		imulq	$48271, _ZN13randomisation5_seedE(%rip), %rcx	#, _seed, tmp98
 1047      0000008F 
 1047      BC0000
 1048 065b 49B90500 		movabsq	$8589934597, %r9	#, tmp101
 1048      00000200 
 1048      0000
 1049 0665 4889C8   		movq	%rcx, %rax	# tmp98, tmp126
 1050 0668 49F7E1   		mulq	%r9	# tmp101
 1051 066b 4889C8   		movq	%rcx, %rax	# tmp98, tmp102
 1052 066e 4829D0   		subq	%rdx, %rax	# tmp100, tmp102
 1053 0671 48D1E8   		shrq	%rax	# tmp103
 1054 0674 4801C2   		addq	%rax, %rdx	# tmp103, tmp104
 1055 0677 48C1EA1E 		shrq	$30, %rdx	#, _seed_lsm.480
 1056 067b 4889D0   		movq	%rdx, %rax	# _seed_lsm.480, tmp106
 1057 067e 48C1E01F 		salq	$31, %rax	#, tmp106
 1058 0682 4829D0   		subq	%rdx, %rax	# _seed_lsm.480, tmp107
 1059 0685 4829C1   		subq	%rax, %rcx	# tmp107, tmp98
 1060 0688 4889CA   		movq	%rcx, %rdx	# tmp98, _seed_lsm.480
 1061 068b 48890D00 		movq	%rcx, _ZN13randomisation5_seedE(%rip)	# _seed_lsm.480, _seed
 1061      000000
 1066              	# Randomisation.generated.h:119: 	for (int i = 0; i < arraySize; i += 1)
 118:Randomisation.generated.h **** 	uint64_t reference = randomisation::GenerateRandomUint64();
 119:Randomisation.generated.h **** 	for (int i = 0; i < arraySize; i += 1)
 1068 0692 4885F6   		testq	%rsi, %rsi	# arraySize
 1069 0695 745A     		je	.L94	#,
 1070 0697 48C1E604 		salq	$4, %rsi	#, tmp108
 1072 069b 4C8D0437 		leaq	(%rdi,%rsi), %r8	#, _37
 1073 069f 4889CE   		movq	%rcx, %rsi	# _seed_lsm.480, ivtmp.488
 1076      0000
 1077              	.L89:
 1080              	# Randomisation.h:20:     _seed = _seed * 48271 % 2147483647;
  20:Randomisation.h ****     return _seed;
 1082 06a8 4869CA8F 		imulq	$48271, %rdx, %rcx	#, _seed_lsm.480, tmp109
 1082      BC0000
 1085              	# Randomisation.generated.h:122: 		arr[i].reference = reference + i;
 120:Randomisation.generated.h **** 	{
 121:Randomisation.generated.h **** 		arr[i].key = randomisation::GenerateRandomUint64();
 122:Randomisation.generated.h **** 		arr[i].reference = reference + i;
 1087 06af 48897708 		movq	%rsi, 8(%rdi)	# ivtmp.488, MEM[base: _31, offset: 8B]
 1088 06b3 4883C710 		addq	$16, %rdi	#, ivtmp.487
 1089 06b7 4883C601 		addq	$1, %rsi	#, ivtmp.488
 1093              	# Randomisation.h:20:     _seed = _seed * 48271 % 2147483647;
  20:Randomisation.h ****     return _seed;
 1095 06bb 4889C8   		movq	%rcx, %rax	# tmp109, tmp127
 1096 06be 49F7E1   		mulq	%r9	# tmp111
 1097 06c1 4889C8   		movq	%rcx, %rax	# tmp109, tmp112
 1098 06c4 4829D0   		subq	%rdx, %rax	# tmp110, tmp112
 1099 06c7 48D1E8   		shrq	%rax	# tmp113
 1100 06ca 4801C2   		addq	%rax, %rdx	# tmp113, tmp114
 1101 06cd 48C1EA1E 		shrq	$30, %rdx	#, _seed_lsm.480
 1102 06d1 4889D0   		movq	%rdx, %rax	# _seed_lsm.480, tmp116
 1103 06d4 48C1E01F 		salq	$31, %rax	#, tmp116
 1104 06d8 4829D0   		subq	%rdx, %rax	# _seed_lsm.480, tmp117
 1105 06db 4829C1   		subq	%rax, %rcx	# tmp117, tmp109
 1108              	# Randomisation.generated.h:121: 		arr[i].key = randomisation::GenerateRandomUint64();
 121:Randomisation.generated.h **** 		arr[i].reference = reference + i;
 1110 06de 48894FF0 		movq	%rcx, -16(%rdi)	# _seed_lsm.480, MEM[base: _31, offset: 0B]
 1113              	# Randomisation.h:20:     _seed = _seed * 48271 % 2147483647;
  20:Randomisation.h ****     return _seed;
 1115 06e2 4889CA   		movq	%rcx, %rdx	# tmp109, _seed_lsm.480
 1118              	# Randomisation.generated.h:119: 	for (int i = 0; i < arraySize; i += 1)
 119:Randomisation.generated.h **** 	{
 1120 06e5 4939F8   		cmpq	%rdi, %r8	# ivtmp.487, _37
 1121 06e8 75BE     		jne	.L89	#,
 1122 06ea 48890D00 		movq	%rcx, _ZN13randomisation5_seedE(%rip)	# _seed_lsm.480, _seed
 1122      000000
 1123              	.L94:
 1125              	# Randomisation.generated.h:124: }
 123:Randomisation.generated.h **** 	}
 124:Randomisation.generated.h **** }
 1127 06f1 C3       		ret
 1131      662E0F1F 
 1131      84000000 
 1131      0000
 1132              		.globl	_ZN13randomisation19GenerateRandomArrayI22SortableRef_StlVersionEEvPT_m
 1134              	_ZN13randomisation19GenerateRandomArrayI22SortableRef_StlVersionEEvPT_m:
 125:Randomisation.generated.h **** template<>
 126:Randomisation.generated.h **** void GenerateRandomArray<SortableRef_StlVersion>(SortableRef_StlVersion* arr, size_t arraySize)
 127:Randomisation.generated.h **** {
 1141              	# Randomisation.h:20:     _seed = _seed * 48271 % 2147483647;
  20:Randomisation.h ****     return _seed;
 1143 0700 48690D00 		imulq	$48271, _ZN13randomisation5_seedE(%rip), %rcx	#, _seed, tmp98
 1143      0000008F 
 1143      BC0000
 1144 070b 49B90500 		movabsq	$8589934597, %r9	#, tmp101
 1144      00000200 
 1144      0000
 1145 0715 4889C8   		movq	%rcx, %rax	# tmp98, tmp126
 1146 0718 49F7E1   		mulq	%r9	# tmp101
 1147 071b 4889C8   		movq	%rcx, %rax	# tmp98, tmp102
 1148 071e 4829D0   		subq	%rdx, %rax	# tmp100, tmp102
 1149 0721 48D1E8   		shrq	%rax	# tmp103
 1150 0724 4801C2   		addq	%rax, %rdx	# tmp103, tmp104
 1151 0727 48C1EA1E 		shrq	$30, %rdx	#, _seed_lsm.492
 1152 072b 4889D0   		movq	%rdx, %rax	# _seed_lsm.492, tmp106
 1153 072e 48C1E01F 		salq	$31, %rax	#, tmp106
 1154 0732 4829D0   		subq	%rdx, %rax	# _seed_lsm.492, tmp107
 1155 0735 4829C1   		subq	%rax, %rcx	# tmp107, tmp98
 1156 0738 4889CA   		movq	%rcx, %rdx	# tmp98, _seed_lsm.492
 1157 073b 48890D00 		movq	%rcx, _ZN13randomisation5_seedE(%rip)	# _seed_lsm.492, _seed
 1157      000000
 1162              	# Randomisation.generated.h:129: 	for (int i = 0; i < arraySize; i += 1)
 128:Randomisation.generated.h **** 	uint64_t reference = randomisation::GenerateRandomUint64();
 129:Randomisation.generated.h **** 	for (int i = 0; i < arraySize; i += 1)
 1164 0742 4885F6   		testq	%rsi, %rsi	# arraySize
 1165 0745 745A     		je	.L102	#,
 1166 0747 48C1E604 		salq	$4, %rsi	#, tmp108
 1168 074b 4C8D0437 		leaq	(%rdi,%rsi), %r8	#, _37
 1169 074f 4889CE   		movq	%rcx, %rsi	# _seed_lsm.492, ivtmp.500
 1172      0000
 1173              	.L97:
 1176              	# Randomisation.h:20:     _seed = _seed * 48271 % 2147483647;
  20:Randomisation.h ****     return _seed;
 1178 0758 4869CA8F 		imulq	$48271, %rdx, %rcx	#, _seed_lsm.492, tmp109
 1178      BC0000
 1181              	# Randomisation.generated.h:132: 		arr[i].reference = reference + i;
 130:Randomisation.generated.h **** 	{
 131:Randomisation.generated.h **** 		arr[i].key = randomisation::GenerateRandomUint64();
 132:Randomisation.generated.h **** 		arr[i].reference = reference + i;
 1183 075f 48897708 		movq	%rsi, 8(%rdi)	# ivtmp.500, MEM[base: _31, offset: 8B]
 1184 0763 4883C710 		addq	$16, %rdi	#, ivtmp.499
 1185 0767 4883C601 		addq	$1, %rsi	#, ivtmp.500
 1189              	# Randomisation.h:20:     _seed = _seed * 48271 % 2147483647;
  20:Randomisation.h ****     return _seed;
 1191 076b 4889C8   		movq	%rcx, %rax	# tmp109, tmp127
 1192 076e 49F7E1   		mulq	%r9	# tmp111
 1193 0771 4889C8   		movq	%rcx, %rax	# tmp109, tmp112
 1194 0774 4829D0   		subq	%rdx, %rax	# tmp110, tmp112
 1195 0777 48D1E8   		shrq	%rax	# tmp113
 1196 077a 4801C2   		addq	%rax, %rdx	# tmp113, tmp114
 1197 077d 48C1EA1E 		shrq	$30, %rdx	#, _seed_lsm.492
 1198 0781 4889D0   		movq	%rdx, %rax	# _seed_lsm.492, tmp116
 1199 0784 48C1E01F 		salq	$31, %rax	#, tmp116
 1200 0788 4829D0   		subq	%rdx, %rax	# _seed_lsm.492, tmp117
 1201 078b 4829C1   		subq	%rax, %rcx	# tmp117, tmp109
 1204              	# Randomisation.generated.h:131: 		arr[i].key = randomisation::GenerateRandomUint64();
 131:Randomisation.generated.h **** 		arr[i].reference = reference + i;
 1206 078e 48894FF0 		movq	%rcx, -16(%rdi)	# _seed_lsm.492, MEM[base: _31, offset: 0B]
 1209              	# Randomisation.h:20:     _seed = _seed * 48271 % 2147483647;
  20:Randomisation.h ****     return _seed;
 1211 0792 4889CA   		movq	%rcx, %rdx	# tmp109, _seed_lsm.492
 1214              	# Randomisation.generated.h:129: 	for (int i = 0; i < arraySize; i += 1)
 129:Randomisation.generated.h **** 	{
 1216 0795 4939F8   		cmpq	%rdi, %r8	# ivtmp.499, _37
 1217 0798 75BE     		jne	.L97	#,
 1218 079a 48890D00 		movq	%rcx, _ZN13randomisation5_seedE(%rip)	# _seed_lsm.492, _seed
 1218      000000
 1219              	.L102:
 1221              	# Randomisation.generated.h:134: }
 133:Randomisation.generated.h **** 	}
 134:Randomisation.generated.h **** }
 1223 07a1 C3       		ret
 1227      662E0F1F 
 1227      84000000 
 1227      0000
 1228              		.globl	_ZN13randomisation19GenerateRandomArrayI28SortableRef_PointerOptimizedEEvPT_m
 1230              	_ZN13randomisation19GenerateRandomArrayI28SortableRef_PointerOptimizedEEvPT_m:
 135:Randomisation.generated.h **** template<>
 136:Randomisation.generated.h **** void GenerateRandomArray<SortableRef_PointerOptimized>(SortableRef_PointerOptimized* arr, size_t ar
 137:Randomisation.generated.h **** {
 1237              	# Randomisation.h:20:     _seed = _seed * 48271 % 2147483647;
  20:Randomisation.h ****     return _seed;
 1239 07b0 48690D00 		imulq	$48271, _ZN13randomisation5_seedE(%rip), %rcx	#, _seed, tmp98
 1239      0000008F 
 1239      BC0000
 1240 07bb 49B90500 		movabsq	$8589934597, %r9	#, tmp101
 1240      00000200 
 1240      0000
 1241 07c5 4889C8   		movq	%rcx, %rax	# tmp98, tmp126
 1242 07c8 49F7E1   		mulq	%r9	# tmp101
 1243 07cb 4889C8   		movq	%rcx, %rax	# tmp98, tmp102
 1244 07ce 4829D0   		subq	%rdx, %rax	# tmp100, tmp102
 1245 07d1 48D1E8   		shrq	%rax	# tmp103
 1246 07d4 4801C2   		addq	%rax, %rdx	# tmp103, tmp104
 1247 07d7 48C1EA1E 		shrq	$30, %rdx	#, _seed_lsm.504
 1248 07db 4889D0   		movq	%rdx, %rax	# _seed_lsm.504, tmp106
 1249 07de 48C1E01F 		salq	$31, %rax	#, tmp106
 1250 07e2 4829D0   		subq	%rdx, %rax	# _seed_lsm.504, tmp107
 1251 07e5 4829C1   		subq	%rax, %rcx	# tmp107, tmp98
 1252 07e8 4889CA   		movq	%rcx, %rdx	# tmp98, _seed_lsm.504
 1253 07eb 48890D00 		movq	%rcx, _ZN13randomisation5_seedE(%rip)	# _seed_lsm.504, _seed
 1253      000000
 1258              	# Randomisation.generated.h:139: 	for (int i = 0; i < arraySize; i += 1)
 138:Randomisation.generated.h **** 	uint64_t reference = randomisation::GenerateRandomUint64();
 139:Randomisation.generated.h **** 	for (int i = 0; i < arraySize; i += 1)
 1260 07f2 4885F6   		testq	%rsi, %rsi	# arraySize
 1261 07f5 745A     		je	.L110	#,
 1262 07f7 48C1E604 		salq	$4, %rsi	#, tmp108
 1264 07fb 4C8D0437 		leaq	(%rdi,%rsi), %r8	#, _37
 1265 07ff 4889CE   		movq	%rcx, %rsi	# _seed_lsm.504, ivtmp.512
 1268      0000
 1269              	.L105:
 1272              	# Randomisation.h:20:     _seed = _seed * 48271 % 2147483647;
  20:Randomisation.h ****     return _seed;
 1274 0808 4869CA8F 		imulq	$48271, %rdx, %rcx	#, _seed_lsm.504, tmp109
 1274      BC0000
 1277              	# Randomisation.generated.h:142: 		arr[i].reference = reference + i;
 140:Randomisation.generated.h **** 	{
 141:Randomisation.generated.h **** 		arr[i].key = randomisation::GenerateRandomUint64();
 142:Randomisation.generated.h **** 		arr[i].reference = reference + i;
 1279 080f 48897708 		movq	%rsi, 8(%rdi)	# ivtmp.512, MEM[base: _31, offset: 8B]
 1280 0813 4883C710 		addq	$16, %rdi	#, ivtmp.511
 1281 0817 4883C601 		addq	$1, %rsi	#, ivtmp.512
 1285              	# Randomisation.h:20:     _seed = _seed * 48271 % 2147483647;
  20:Randomisation.h ****     return _seed;
 1287 081b 4889C8   		movq	%rcx, %rax	# tmp109, tmp127
 1288 081e 49F7E1   		mulq	%r9	# tmp111
 1289 0821 4889C8   		movq	%rcx, %rax	# tmp109, tmp112
 1290 0824 4829D0   		subq	%rdx, %rax	# tmp110, tmp112
 1291 0827 48D1E8   		shrq	%rax	# tmp113
 1292 082a 4801C2   		addq	%rax, %rdx	# tmp113, tmp114
 1293 082d 48C1EA1E 		shrq	$30, %rdx	#, _seed_lsm.504
 1294 0831 4889D0   		movq	%rdx, %rax	# _seed_lsm.504, tmp116
 1295 0834 48C1E01F 		salq	$31, %rax	#, tmp116
 1296 0838 4829D0   		subq	%rdx, %rax	# _seed_lsm.504, tmp117
 1297 083b 4829C1   		subq	%rax, %rcx	# tmp117, tmp109
 1300              	# Randomisation.generated.h:141: 		arr[i].key = randomisation::GenerateRandomUint64();
 141:Randomisation.generated.h **** 		arr[i].reference = reference + i;
 1302 083e 48894FF0 		movq	%rcx, -16(%rdi)	# _seed_lsm.504, MEM[base: _31, offset: 0B]
 1305              	# Randomisation.h:20:     _seed = _seed * 48271 % 2147483647;
  20:Randomisation.h ****     return _seed;
 1307 0842 4889CA   		movq	%rcx, %rdx	# tmp109, _seed_lsm.504
 1310              	# Randomisation.generated.h:139: 	for (int i = 0; i < arraySize; i += 1)
 139:Randomisation.generated.h **** 	{
 1312 0845 4939F8   		cmpq	%rdi, %r8	# ivtmp.511, _37
 1313 0848 75BE     		jne	.L105	#,
 1314 084a 48890D00 		movq	%rcx, _ZN13randomisation5_seedE(%rip)	# _seed_lsm.504, _seed
 1314      000000
 1315              	.L110:
 1317              	# Randomisation.generated.h:144: }
 143:Randomisation.generated.h **** 	}
 144:Randomisation.generated.h **** }
 1319 0851 C3       		ret
 1323      662E0F1F 
 1323      84000000 
 1323      0000
 1324              		.globl	_ZN13randomisation19GenerateRandomArrayI33SortableRef_ArrayIndex_FirstCheckEEvPT_m
 1326              	_ZN13randomisation19GenerateRandomArrayI33SortableRef_ArrayIndex_FirstCheckEEvPT_m:
 145:Randomisation.generated.h **** template<>
 146:Randomisation.generated.h **** void GenerateRandomArray<SortableRef_ArrayIndex_FirstCheck>(SortableRef_ArrayIndex_FirstCheck* arr,
 147:Randomisation.generated.h **** {
 1333              	# Randomisation.h:20:     _seed = _seed * 48271 % 2147483647;
  20:Randomisation.h ****     return _seed;
 1335 0860 48690D00 		imulq	$48271, _ZN13randomisation5_seedE(%rip), %rcx	#, _seed, tmp98
 1335      0000008F 
 1335      BC0000
 1336 086b 49B90500 		movabsq	$8589934597, %r9	#, tmp101
 1336      00000200 
 1336      0000
 1337 0875 4889C8   		movq	%rcx, %rax	# tmp98, tmp126
 1338 0878 49F7E1   		mulq	%r9	# tmp101
 1339 087b 4889C8   		movq	%rcx, %rax	# tmp98, tmp102
 1340 087e 4829D0   		subq	%rdx, %rax	# tmp100, tmp102
 1341 0881 48D1E8   		shrq	%rax	# tmp103
 1342 0884 4801C2   		addq	%rax, %rdx	# tmp103, tmp104
 1343 0887 48C1EA1E 		shrq	$30, %rdx	#, _seed_lsm.516
 1344 088b 4889D0   		movq	%rdx, %rax	# _seed_lsm.516, tmp106
 1345 088e 48C1E01F 		salq	$31, %rax	#, tmp106
 1346 0892 4829D0   		subq	%rdx, %rax	# _seed_lsm.516, tmp107
 1347 0895 4829C1   		subq	%rax, %rcx	# tmp107, tmp98
 1348 0898 4889CA   		movq	%rcx, %rdx	# tmp98, _seed_lsm.516
 1349 089b 48890D00 		movq	%rcx, _ZN13randomisation5_seedE(%rip)	# _seed_lsm.516, _seed
 1349      000000
 1354              	# Randomisation.generated.h:149: 	for (int i = 0; i < arraySize; i += 1)
 148:Randomisation.generated.h **** 	uint64_t reference = randomisation::GenerateRandomUint64();
 149:Randomisation.generated.h **** 	for (int i = 0; i < arraySize; i += 1)
 1356 08a2 4885F6   		testq	%rsi, %rsi	# arraySize
 1357 08a5 745A     		je	.L118	#,
 1358 08a7 48C1E604 		salq	$4, %rsi	#, tmp108
 1360 08ab 4C8D0437 		leaq	(%rdi,%rsi), %r8	#, _37
 1361 08af 4889CE   		movq	%rcx, %rsi	# _seed_lsm.516, ivtmp.524
 1364      0000
 1365              	.L113:
 1368              	# Randomisation.h:20:     _seed = _seed * 48271 % 2147483647;
  20:Randomisation.h ****     return _seed;
 1370 08b8 4869CA8F 		imulq	$48271, %rdx, %rcx	#, _seed_lsm.516, tmp109
 1370      BC0000
 1373              	# Randomisation.generated.h:152: 		arr[i].reference = reference + i;
 150:Randomisation.generated.h **** 	{
 151:Randomisation.generated.h **** 		arr[i].key = randomisation::GenerateRandomUint64();
 152:Randomisation.generated.h **** 		arr[i].reference = reference + i;
 1375 08bf 48897708 		movq	%rsi, 8(%rdi)	# ivtmp.524, MEM[base: _31, offset: 8B]
 1376 08c3 4883C710 		addq	$16, %rdi	#, ivtmp.523
 1377 08c7 4883C601 		addq	$1, %rsi	#, ivtmp.524
 1381              	# Randomisation.h:20:     _seed = _seed * 48271 % 2147483647;
  20:Randomisation.h ****     return _seed;
 1383 08cb 4889C8   		movq	%rcx, %rax	# tmp109, tmp127
 1384 08ce 49F7E1   		mulq	%r9	# tmp111
 1385 08d1 4889C8   		movq	%rcx, %rax	# tmp109, tmp112
 1386 08d4 4829D0   		subq	%rdx, %rax	# tmp110, tmp112
 1387 08d7 48D1E8   		shrq	%rax	# tmp113
 1388 08da 4801C2   		addq	%rax, %rdx	# tmp113, tmp114
 1389 08dd 48C1EA1E 		shrq	$30, %rdx	#, _seed_lsm.516
 1390 08e1 4889D0   		movq	%rdx, %rax	# _seed_lsm.516, tmp116
 1391 08e4 48C1E01F 		salq	$31, %rax	#, tmp116
 1392 08e8 4829D0   		subq	%rdx, %rax	# _seed_lsm.516, tmp117
 1393 08eb 4829C1   		subq	%rax, %rcx	# tmp117, tmp109
 1396              	# Randomisation.generated.h:151: 		arr[i].key = randomisation::GenerateRandomUint64();
 151:Randomisation.generated.h **** 		arr[i].reference = reference + i;
 1398 08ee 48894FF0 		movq	%rcx, -16(%rdi)	# _seed_lsm.516, MEM[base: _31, offset: 0B]
 1401              	# Randomisation.h:20:     _seed = _seed * 48271 % 2147483647;
  20:Randomisation.h ****     return _seed;
 1403 08f2 4889CA   		movq	%rcx, %rdx	# tmp109, _seed_lsm.516
 1406              	# Randomisation.generated.h:149: 	for (int i = 0; i < arraySize; i += 1)
 149:Randomisation.generated.h **** 	{
 1408 08f5 4939F8   		cmpq	%rdi, %r8	# ivtmp.523, _37
 1409 08f8 75BE     		jne	.L113	#,
 1410 08fa 48890D00 		movq	%rcx, _ZN13randomisation5_seedE(%rip)	# _seed_lsm.516, _seed
 1410      000000
 1411              	.L118:
 1413              	# Randomisation.generated.h:154: }
 153:Randomisation.generated.h **** 	}
 154:Randomisation.generated.h **** }
 1415 0901 C3       		ret
 1419              		.section	.rodata.str1.8,"aMS",@progbits,1
 1420              		.align 8
 1421              	.LC0:
 1422 0000 52657375 		.string	"Result Mapping: s = sorter, m = metric, v = value, ss = struct_size, a = array_size, i = 
 1422      6C74204D 
 1422      61707069 
 1422      6E673A20 
 1422      73203D20 
 1423              		.text
 1424      662E0F1F 
 1424      84000000 
 1424      0000
 1425              		.globl	_ZN6result32WriteAbbreviationExplanatoryLineEv
 1427              	_ZN6result32WriteAbbreviationExplanatoryLineEv:
   1:Result.h      **** 
   2:Result.h      **** #ifndef RESULT_H
   3:Result.h      **** #define RESULT_H
   4:Result.h      **** 
   5:Result.h      **** #include <inttypes.h>
   6:Result.h      **** #include <string>
   7:Result.h      **** #include <stdexcept>
   8:Result.h      **** #include <iostream>
   9:Result.h      **** 
  10:Result.h      **** #include "Enumerations.h"
  11:Result.h      **** #include "Performancing.h"
  12:Result.h      **** #include "EnvironmentInfo.h"
  13:Result.h      **** 
  14:Result.h      **** namespace result {
  15:Result.h      **** 
  16:Result.h      **** void WriteAbbreviationExplanatoryLine()
  17:Result.h      **** {
 1435              	# /usr/include/x86_64-linux-gnu/bits/stdio2.h:104:   return __printf_chk (__USE_FORTIFY_LEVEL - 1, 
 1438 0910 488D3D00 		leaq	.LC0(%rip), %rdi	#,
 1438      000000
 1439 0917 E9000000 		jmp	puts@PLT	#
 1439      00
 1446              		.section	.rodata.str1.1,"aMS",@progbits,1
 1447              	.LC1:
 1448 0000 43707520 		.string	"Cpu Cycles"
 1448      4379636C 
 1448      657300
 1449              	.LC2:
 1450 000b 43616368 		.string	"Cache Misses"
 1450      65204D69 
 1450      73736573 
 1450      00
 1451              	.LC3:
 1452 0018 4272616E 		.string	"Branch Misses"
 1452      6368204D 
 1452      69737365 
 1452      7300
 1453              		.section	.rodata.str1.8
 1454 00bb 00000000 		.align 8
 1454      00
 1455              	.LC4:
 1456 00c0 52657375 		.string	"Result_h::WriteResultLine => Missing Performance Metric!"
 1456      6C745F68 
 1456      3A3A5772 
 1456      69746552 
 1456      6573756C 
 1457 00f9 00000000 		.align 8
 1457      000000
 1458              	.LC5:
 1459 0100 52455355 		.string	"RESULT\ts=%s\tm=%s\tv=%lu\tss=%i\ta=%zu\ti=%i\tn=%i\tb=%i\tc=%i\n"
 1459      4C540973 
 1459      3D257309 
 1459      6D3D2573 
 1459      09763D25 
 1460              		.text
 1462              		.globl	_ZN6result15WriteResultLineENSt7__cxx1112basic_stringIcSt11char_traitsIcESaIcEEEP13Performa
 1464              	_ZN6result15WriteResultLineENSt7__cxx1112basic_stringIcSt11char_traitsIcESaIcEEEP13Performancingimi
  18:Result.h      ****     printf("Result Mapping: s = sorter, m = metric, v = value, ss = struct_size, a = array_size, i 
  19:Result.h      **** }
  20:Result.h      **** 
  21:Result.h      **** void WriteResultLine(
  22:Result.h      ****     std::string sorter, 
  23:Result.h      ****     Performancing* perf, 
  24:Result.h      ****     int structSize,
  25:Result.h      ****     size_t arraySize,
  26:Result.h      ****     int measureIteration,
  27:Result.h      ****     int numberOfIterations, 
  28:Result.h      ****     int numberOfBadSorts,
  29:Result.h      ****     bool isActualSorterMeasurement) 
  30:Result.h      **** {
 1471 0920 55       		pushq	%rbp	#
 1474 0921 4889E5   		movq	%rsp, %rbp	#,
 1476 0924 4157     		pushq	%r15	#
 1478 0926 4589CF   		movl	%r9d, %r15d	# numberOfIterations, numberOfIterations
 1479 0929 4156     		pushq	%r14	#
 1481 092b 4589C6   		movl	%r8d, %r14d	# measureIteration, measureIteration
 1482 092e 4155     		pushq	%r13	#
 1484 0930 4989FD   		movq	%rdi, %r13	# sorter, sorter
 1485              	# Result.h:33:     switch (perf->GetMetric()) {
  31:Result.h      ****     std::string metric_name;
  32:Result.h      **** 
  33:Result.h      ****     switch (perf->GetMetric()) {
 1487 0933 4889F7   		movq	%rsi, %rdi	# perf,
 1489              	# Result.h:30: {
  30:Result.h      ****     std::string metric_name;
 1491 0936 4154     		pushq	%r12	#
 1493 0938 4989F4   		movq	%rsi, %r12	# perf, perf
 1494 093b 53       		pushq	%rbx	#
 1501              	# /usr/include/c++/7/bits/basic_string.h:149: 	: allocator_type(std::move(__a)), _M_p(__dat) { }
 1504 093c 488D5DA0 		leaq	-96(%rbp), %rbx	#, tmp129
 1510              	# Result.h:30: {
  30:Result.h      ****     std::string metric_name;
 1512 0940 4883EC48 		subq	$72, %rsp	#,
 1513              	# Result.h:30: {
  30:Result.h      ****     std::string metric_name;
 1515 0944 8B4518   		movl	24(%rbp), %eax	# isActualSorterMeasurement, isActualSorterMeasurement
 1516 0947 89559C   		movl	%edx, -100(%rbp)	# structSize, %sfp
 1517 094a 48894D90 		movq	%rcx, -112(%rbp)	# arraySize, %sfp
 1523              	# /usr/include/c++/7/bits/basic_string.h:172:       { _M_string_length = __length; }
 1525 094e 48C745A8 		movq	$0, -88(%rbp)	#, MEM[(size_type *)&metric_name + 8B]
 1525      00000000 
 1530              	# /usr/include/c++/7/bits/char_traits.h:285:       { __c1 = __c2; }
 1533 0956 C645B000 		movb	$0, -80(%rbp)	#, MEM[(char_type &)&metric_name + 16]
 1539              	# Result.h:30: {
  30:Result.h      ****     std::string metric_name;
 1541 095a 894598   		movl	%eax, -104(%rbp)	# isActualSorterMeasurement, %sfp
 1542 095d 64488B04 		movq	%fs:40, %rax	#, tmp130
 1542      25280000 
 1542      00
 1543 0966 488945C8 		movq	%rax, -56(%rbp)	# tmp130, D.83533
 1544 096a 31C0     		xorl	%eax, %eax	# tmp130
 1551              	# /usr/include/c++/7/bits/basic_string.h:149: 	: allocator_type(std::move(__a)), _M_p(__dat) { }
 1553 096c 488D4310 		leaq	16(%rbx), %rax	#, tmp110
 1554 0970 488945A0 		movq	%rax, -96(%rbp)	# tmp110, MEM[(struct _Alloc_hider *)&metric_name]._M_p
 1556              	.LEHB0:
 1562              	# Result.h:33:     switch (perf->GetMetric()) {
 1564 0974 E8000000 		call	_ZN13Performancing9GetMetricEv@PLT	#
 1564      00
 1566              	.LEHE0:
 1567 0979 83F801   		cmpl	$1, %eax	#, _7
 1568 097c 0F840E01 		je	.L122	#,
 1568      0000
 1569              	# Result.h:33:     switch (perf->GetMetric()) {
 1571 0982 83F802   		cmpl	$2, %eax	#, _7
 1572 0985 7441     		je	.L123	#,
 1573 0987 85C0     		testl	%eax, %eax	# _7
 1574 0989 0F84D900 		je	.L136	#,
 1574      0000
 1575              	# Result.h:44:             throw std::logic_error("Result_h::WriteResultLine => Missing Performance
  34:Result.h      ****         case PerformanceMetric::CPU_CYCLES:
  35:Result.h      ****             metric_name = "Cpu Cycles";
  36:Result.h      ****             break;
  37:Result.h      ****         case PerformanceMetric::CACHE_MISSES:
  38:Result.h      ****             metric_name = "Cache Misses";
  39:Result.h      ****             break;
  40:Result.h      ****         case PerformanceMetric::BRANCH_MISSES:
  41:Result.h      ****             metric_name = "Branch Misses";
  42:Result.h      ****             break;
  43:Result.h      ****         default:
  44:Result.h      ****             throw std::logic_error("Result_h::WriteResultLine => Missing Performance Metric!");
 1577 098f BF100000 		movl	$16, %edi	#,
 1577      00
 1578 0994 E8000000 		call	__cxa_allocate_exception@PLT	#
 1578      00
 1580 0999 488D3500 		leaq	.LC4(%rip), %rsi	#,
 1580      000000
 1581 09a0 4889C7   		movq	%rax, %rdi	# _19,
 1582 09a3 4989C4   		movq	%rax, %r12	#, _19
 1584              	.LEHB1:
 1585 09a6 E8000000 		call	_ZNSt11logic_errorC1EPKc@PLT	#
 1585      00
 1587              	.LEHE1:
 1588              	# Result.h:44:             throw std::logic_error("Result_h::WriteResultLine => Missing Performance
 1590 09ab 488B1500 		movq	_ZNSt11logic_errorD1Ev@GOTPCREL(%rip), %rdx	#,
 1590      000000
 1591 09b2 488D3500 		leaq	_ZTISt11logic_error(%rip), %rsi	#,
 1591      000000
 1592 09b9 4C89E7   		movq	%r12, %rdi	# _19,
 1593              	.LEHB2:
 1594 09bc E8000000 		call	__cxa_throw@PLT	#
 1594      00
 1597      000000
 1598              	.L123:
 1602              	# /usr/include/c++/7/bits/basic_string.h:1420: 			  traits_type::length(__s));
 1604 09c8 488B55A8 		movq	-88(%rbp), %rdx	# MEM[(const struct basic_string *)&metric_name + 8B],
 1605 09cc 41B80D00 		movl	$13, %r8d	#,
 1605      0000
 1606 09d2 31F6     		xorl	%esi, %esi	#
 1607 09d4 4889DF   		movq	%rbx, %rdi	# tmp129,
 1608 09d7 488D0D00 		leaq	.LC3(%rip), %rcx	#,
 1608      000000
 1609 09de E8000000 		call	_ZNSt7__cxx1112basic_stringIcSt11char_traitsIcESaIcEE10_M_replaceEmmPKcm@PLT	#
 1609      00
 1611              	.L125:
 1615              	# Result.h:47:     printf(
  45:Result.h      ****     }
  46:Result.h      **** 
  47:Result.h      ****     printf(
 1617 09e3 0FB64598 		movzbl	-104(%rbp), %eax	# %sfp, tmp119
 1618 09e7 4C89E7   		movq	%r12, %rdi	# perf,
 1619 09ea 83F001   		xorl	$1, %eax	#, tmp119
 1620 09ed 0FB6C0   		movzbl	%al, %eax	# tmp119, _45
 1621 09f0 894598   		movl	%eax, -104(%rbp)	# _45, %sfp
 1622 09f3 E8000000 		call	_ZN13Performancing8GetValueEv@PLT	#
 1622      00
 1624 09f8 4989C0   		movq	%rax, %r8	#, _10
 1628              	# /usr/include/x86_64-linux-gnu/bits/stdio2.h:104:   return __printf_chk (__USE_FORTIFY_LEVEL - 1, 
 1630 09fb 8B4598   		movl	-104(%rbp), %eax	# %sfp, _45
 1631 09fe 4883EC08 		subq	$8, %rsp	#,
 1632 0a02 BF010000 		movl	$1, %edi	#,
 1632      00
 1633 0a07 448B4D9C 		movl	-100(%rbp), %r9d	# %sfp,
 1634 0a0b 488D3500 		leaq	.LC5(%rip), %rsi	#,
 1634      000000
 1635 0a12 488B4DA0 		movq	-96(%rbp), %rcx	# MEM[(const struct basic_string *)&metric_name],
 1636 0a16 498B5500 		movq	0(%r13), %rdx	# MEM[(const struct basic_string *)sorter_11(D)],
 1637 0a1a 50       		pushq	%rax	# _45
 1638 0a1b 8B4510   		movl	16(%rbp), %eax	# numberOfBadSorts, numberOfBadSorts
 1639 0a1e 50       		pushq	%rax	# numberOfBadSorts
 1640 0a1f 31C0     		xorl	%eax, %eax	#
 1641 0a21 4157     		pushq	%r15	# numberOfIterations
 1642 0a23 4156     		pushq	%r14	# measureIteration
 1643 0a25 FF7590   		pushq	-112(%rbp)	# %sfp
 1645 0a28 E8000000 		call	__printf_chk@PLT	#
 1645      00
 1654              	# /usr/include/c++/7/bits/basic_string.h:211:       { return _M_data() == _M_local_data(); }
 1656 0a2d 488B7DA0 		movq	-96(%rbp), %rdi	# MEM[(const struct basic_string *)&metric_name], _25
 1659              	# /usr/include/c++/7/bits/basic_string.h:220: 	if (!_M_is_local())
 1661 0a31 4883C310 		addq	$16, %rbx	#, tmp122
 1668              	# /usr/include/x86_64-linux-gnu/bits/stdio2.h:104:   return __printf_chk (__USE_FORTIFY_LEVEL - 1, 
 1670 0a35 4883C430 		addq	$48, %rsp	#,
 1677              	# /usr/include/c++/7/bits/basic_string.h:220: 	if (!_M_is_local())
 1679 0a39 4839DF   		cmpq	%rbx, %rdi	# tmp122, _25
 1680 0a3c 7405     		je	.L120	#,
 1686              	# /usr/include/c++/7/ext/new_allocator.h:125: 	::operator delete(__p);
 1689 0a3e E8000000 		call	_ZdlPv@PLT	#
 1689      00
 1691              	.L120:
 1699              	# Result.h:59: }
  48:Result.h      ****         "RESULT\ts=%s\tm=%s\tv=%" PRIu64 "\tss=%i\ta=%zu\ti=%i\tn=%i\tb=%i\tc=%i\n", 
  49:Result.h      **** 
  50:Result.h      ****         sorter.c_str(), 
  51:Result.h      ****         metric_name.c_str(), 
  52:Result.h      ****         perf->GetValue(), 
  53:Result.h      ****         structSize,
  54:Result.h      ****         arraySize,
  55:Result.h      ****         measureIteration,
  56:Result.h      ****         numberOfIterations, 
  57:Result.h      ****         numberOfBadSorts,
  58:Result.h      ****         isActualSorterMeasurement ? 0 : 1); 
  59:Result.h      **** }
 1701 0a43 488B45C8 		movq	-56(%rbp), %rax	# D.83533, tmp131
 1702 0a47 64483304 		xorq	%fs:40, %rax	#, tmp131
 1702      25280000 
 1702      00
 1703 0a50 757E     		jne	.L137	#,
 1704 0a52 488D65D8 		leaq	-40(%rbp), %rsp	#,
 1705 0a56 5B       		popq	%rbx	#
 1707 0a57 415C     		popq	%r12	#
 1709 0a59 415D     		popq	%r13	#
 1711 0a5b 415E     		popq	%r14	#
 1713 0a5d 415F     		popq	%r15	#
 1715 0a5f 5D       		popq	%rbp	#
 1719 0a60 C3       		ret
 1722      000000
 1723              	.L136:
 1728              	# /usr/include/c++/7/bits/basic_string.h:1420: 			  traits_type::length(__s));
 1730 0a68 488B55A8 		movq	-88(%rbp), %rdx	# MEM[(const struct basic_string *)&metric_name + 8B],
 1731 0a6c 41B80A00 		movl	$10, %r8d	#,
 1731      0000
 1732 0a72 31F6     		xorl	%esi, %esi	#
 1733 0a74 4889DF   		movq	%rbx, %rdi	# tmp129,
 1734 0a77 488D0D00 		leaq	.LC1(%rip), %rcx	#,
 1734      000000
 1736 0a7e E8000000 		call	_ZNSt7__cxx1112basic_stringIcSt11char_traitsIcESaIcEE10_M_replaceEmmPKcm@PLT	#
 1736      00
 1738 0a83 E95BFFFF 		jmp	.L125	#
 1738      FF
 1740      00000000 
 1742              	.L122:
 1749 0a90 488B55A8 		movq	-88(%rbp), %rdx	# MEM[(const struct basic_string *)&metric_name + 8B],
 1750 0a94 41B80C00 		movl	$12, %r8d	#,
 1750      0000
 1751 0a9a 31F6     		xorl	%esi, %esi	#
 1752 0a9c 4889DF   		movq	%rbx, %rdi	# tmp129,
 1753 0a9f 488D0D00 		leaq	.LC2(%rip), %rcx	#,
 1753      000000
 1754 0aa6 E8000000 		call	_ZNSt7__cxx1112basic_stringIcSt11char_traitsIcESaIcEE10_M_replaceEmmPKcm@PLT	#
 1754      00
 1756              	.LEHE2:
 1757 0aab E933FFFF 		jmp	.L125	#
 1757      FF
 1759              	.L131:
 1760 0ab0 4989C7   		movq	%rax, %r15	#, tmp123
 1762 0ab3 C5F877   		vzeroupper
 1764              	.L128:
 1773              	# /usr/include/c++/7/bits/basic_string.h:211:       { return _M_data() == _M_local_data(); }
 1775 0ab6 488B7DA0 		movq	-96(%rbp), %rdi	# MEM[(const struct basic_string *)&metric_name], _26
 1779              	# /usr/include/c++/7/bits/basic_string.h:220: 	if (!_M_is_local())
 1781 0aba 4883C310 		addq	$16, %rbx	#, tmp128
 1783 0abe 4839DF   		cmpq	%rbx, %rdi	# tmp128, _26
 1784 0ac1 7405     		je	.L129	#,
 1790              	# /usr/include/c++/7/ext/new_allocator.h:125: 	::operator delete(__p);
 1792 0ac3 E8000000 		call	_ZdlPv@PLT	#
 1792      00
 1794              	.L129:
 1795 0ac8 4C89FF   		movq	%r15, %rdi	# tmp123,
 1796              	.LEHB3:
 1797 0acb E8000000 		call	_Unwind_Resume@PLT	#
 1797      00
 1799              	.LEHE3:
 1800              	.L137:
 1808              	# Result.h:59: }
 1810 0ad0 E8000000 		call	__stack_chk_fail@PLT	#
 1810      00
 1812              	.L132:
 1813 0ad5 4989C6   		movq	%rax, %r14	#, tmp124
 1815              	# Result.h:44:             throw std::logic_error("Result_h::WriteResultLine => Missing Performance
  44:Result.h      ****     }
 1817 0ad8 4C89E7   		movq	%r12, %rdi	# _19,
 1818 0adb C5F877   		vzeroupper
 1819 0ade E8000000 		call	__cxa_free_exception@PLT	#
 1819      00
 1821 0ae3 4D89F7   		movq	%r14, %r15	# tmp124, tmp123
 1823 0ae6 EBCE     		jmp	.L128	#
 1826              		.globl	__gxx_personality_v0
 1827              		.section	.gcc_except_table,"a",@progbits
 1828              	.LLSDA2921:
 1829 0000 FF       		.byte	0xff
 1830 0001 FF       		.byte	0xff
 1831 0002 01       		.byte	0x1
 1833              	.LLSDACSB2921:
 1850              	.LLSDACSE2921:
 1851              		.text
 1853              		.section	.rodata._ZN5debug9WriteLineIJPKcEEEvDpT_.str1.8,"aMS",@progbits,1
 1854              		.align 8
 1855              	.LC6:
 1856 0000 62617369 		.string	"basic_string::_M_construct null not valid"
 1856      635F7374 
 1856      72696E67 
 1856      3A3A5F4D 
 1856      5F636F6E 
 1857              		.section	.text._ZN5debug9WriteLineIJPKcEEEvDpT_,"axG",@progbits,_ZN5debug9WriteLineIJPKcEEEvDpT_,c
 1859              		.weak	_ZN5debug9WriteLineIJPKcEEEvDpT_
 1861              	_ZN5debug9WriteLineIJPKcEEEvDpT_:
   1:DebugHelper.h **** 
   2:DebugHelper.h **** #ifndef DEBUG_HELPER_H
   3:DebugHelper.h **** #define DEBUG_HELPER_H
   4:DebugHelper.h **** 
   5:DebugHelper.h **** #include <iostream>
   6:DebugHelper.h **** #include <fstream>
   7:DebugHelper.h **** 
   8:DebugHelper.h **** #include <string>
   9:DebugHelper.h **** #include <vector>
  10:DebugHelper.h **** 
  11:DebugHelper.h **** namespace debug
  12:DebugHelper.h **** {
  13:DebugHelper.h ****     
  14:DebugHelper.h **** template <typename... TInputs>
  15:DebugHelper.h **** void WriteLine(TInputs... inputs)
 1869 0000 4156     		pushq	%r14	#
 1872 0002 4155     		pushq	%r13	#
 1875 0004 4154     		pushq	%r12	#
 1878 0006 55       		pushq	%rbp	#
 1881 0007 53       		pushq	%rbx	#
 1884 0008 4883EC40 		subq	$64, %rsp	#,
 1886              	# DebugHelper.h:15: void WriteLine(TInputs... inputs)
 1888 000c 64488B04 		movq	%fs:40, %rax	#, tmp222
 1888      25280000 
 1888      00
 1889 0015 48894424 		movq	%rax, 56(%rsp)	# tmp222, D.83946
 1889      38
 1890 001a 31C0     		xorl	%eax, %eax	# tmp222
 1898              	# /usr/include/c++/7/bits/basic_string.h:146: 	: allocator_type(__a), _M_p(__dat) { }
 1900 001c 488D6C24 		leaq	16(%rsp), %rbp	#, tmp220
 1900      10
 1902 0021 488D5D10 		leaq	16(%rbp), %rbx	#, tmp150
 1903 0025 48895C24 		movq	%rbx, 16(%rsp)	# tmp150, MEM[(struct _Alloc_hider *)&D.76151]._M_p
 1903      10
 1908              	# /usr/include/c++/7/bits/basic_string.h:511:       { _M_construct(__s, __s ? __s + traits_type::le
 1910 002a 4885FF   		testq	%rdi, %rdi	# inputs#0
 1911 002d 0F845703 		je	.L139	#,
 1911      0000
 1912 0033 4989FC   		movq	%rdi, %r12	# inputs#0, inputs#0
 1916              	# /usr/include/c++/7/bits/char_traits.h:320: 	return __builtin_strlen(__s);
 1918 0036 E8000000 		call	strlen@PLT	#
 1918      00
 1920 003b 4989C5   		movq	%rax, %r13	# prephitmp_5, tmp152
 1930              	# /usr/include/c++/7/bits/basic_string.tcc:215: 	size_type __dnew = static_cast<size_type>(std::dis
 1933 003e 48894424 		movq	%rax, 8(%rsp)	# prephitmp_5, __dnew
 1933      08
 1934              	# /usr/include/c++/7/bits/basic_string.tcc:217: 	if (__dnew > size_type(_S_local_capacity))
 1936 0043 4883F80F 		cmpq	$15, %rax	#, prephitmp_5
 1937 0047 0F876B02 		ja	.L197	#,
 1937      0000
 1942              	# /usr/include/c++/7/bits/basic_string.h:337: 	if (__n == 1)
 1944 004d 4883F801 		cmpq	$1, %rax	#, prephitmp_5
 1945 0051 0F85A102 		jne	.L143	#,
 1945      0000
 1949              	# /usr/include/c++/7/bits/char_traits.h:285:       { __c1 = __c2; }
 1951 0057 410FB614 		movzbl	(%r12), %edx	# MEM[(const char_type &)inputs#0_10(D)], MEM[(const char_type &)inputs#0_10(D
 1951      24
 1952 005c 88542420 		movb	%dl, 32(%rsp)	# MEM[(const char_type &)inputs#0_10(D)], MEM[(char_type &)&D.76151 + 16]
 1954              	.L144:
 1964              	# /usr/include/c++/7/bits/basic_string.h:172:       { _M_string_length = __length; }
 1966 0060 48894424 		movq	%rax, 24(%rsp)	# prephitmp_5, MEM[(size_type *)&D.76151 + 8B]
 1966      18
 1989              	# /usr/include/c++/7/ext/new_allocator.h:111: 	return static_cast<_Tp*>(::operator new(__n * sizeof
 1991 0065 BF200000 		movl	$32, %edi	#,
 1991      00
 2013              	# /usr/include/c++/7/bits/char_traits.h:285:       { __c1 = __c2; }
 2015 006a C6040300 		movb	$0, (%rbx,%rax)	#, MEM[(char_type &)_73]
 2017              	.LEHB4:
 2039              	# /usr/include/c++/7/ext/new_allocator.h:111: 	return static_cast<_Tp*>(::operator new(__n * sizeof
 2041 006e E8000000 		call	_Znwm@PLT	#
 2041      00
 2043              	.LEHE4:
 2044 0073 4C8B7424 		movq	16(%rsp), %r14	# MEM[(const struct basic_string *)&D.76151], pretmp_260
 2044      10
 2061              	# /usr/include/c++/7/bits/basic_string.h:182: 	return std::pointer_traits<pointer>::pointer_to(*_M_
 2063 0078 4C8D6810 		leaq	16(%rax), %r13	#, tmp221
 2080              	# /usr/include/c++/7/ext/new_allocator.h:111: 	return static_cast<_Tp*>(::operator new(__n * sizeof
 2082 007c 4989C4   		movq	%rax, %r12	#, _89
 2098              	# /usr/include/c++/7/bits/basic_string.h:440:       { _M_construct(__str._M_data(), __str._M_data()
 2100 007f 488B5C24 		movq	24(%rsp), %rbx	# MEM[(const struct basic_string *)&D.76151 + 8B], _104
 2100      18
 2103              	# /usr/include/c++/7/bits/basic_string.h:182: 	return std::pointer_traits<pointer>::pointer_to(*_M_
 2105 0084 4C89E8   		movq	%r13, %rax	# tmp221, prephitmp_27
 2111              	# /usr/include/c++/7/bits/basic_string.h:149: 	: allocator_type(std::move(__a)), _M_p(__dat) { }
 2113 0087 4D892C24 		movq	%r13, (%r12)	# tmp221, MEM[(struct _Alloc_hider *)_89]._M_p
 2123              	# /usr/include/c++/7/bits/basic_string.tcc:211: 	if (__gnu_cxx::__is_null_pointer(__beg) && __beg !
 2125 008b 4C89F1   		movq	%r14, %rcx	# pretmp_260, tmp223
 2126 008e 4801D9   		addq	%rbx, %rcx	# _104, tmp223
 2127 0091 7409     		je	.L145	#,
 2128 0093 4D85F6   		testq	%r14, %r14	# pretmp_260
 2129 0096 0F846F02 		je	.L198	#,
 2129      0000
 2130              	.L145:
 2131              	# /usr/include/c++/7/bits/basic_string.tcc:215: 	size_type __dnew = static_cast<size_type>(std::dis
 2133 009c 48895C24 		movq	%rbx, 8(%rsp)	# _104, __dnew
 2133      08
 2134              	# /usr/include/c++/7/bits/basic_string.tcc:217: 	if (__dnew > size_type(_S_local_capacity))
 2136 00a1 4883FB0F 		cmpq	$15, %rbx	#, _104
 2137 00a5 0F877501 		ja	.L199	#,
 2137      0000
 2142              	# /usr/include/c++/7/bits/basic_string.h:337: 	if (__n == 1)
 2144 00ab 4883FB01 		cmpq	$1, %rbx	#, _104
 2145 00af 0F85BB01 		jne	.L148	#,
 2145      0000
 2146              	# /usr/include/c++/7/bits/basic_string.h:338: 	  traits_type::assign(*__d, *__s);
 2148 00b5 410FB616 		movzbl	(%r14), %edx	# MEM[(const char_type &)pretmp_260], _113
 2152              	# /usr/include/c++/7/bits/char_traits.h:285:       { __c1 = __c2; }
 2154 00b9 41885424 		movb	%dl, 16(%r12)	# _113, MEM[(char_type &)_89 + 16]
 2154      10
 2156              	.L149:
 2166              	# /usr/include/c++/7/bits/basic_string.h:172:       { _M_string_length = __length; }
 2168 00be 49895C24 		movq	%rbx, 8(%r12)	# _104, MEM[(size_type *)_89 + 8B]
 2168      08
 2174              	# /usr/include/c++/7/bits/char_traits.h:285:       { __c1 = __c2; }
 2176 00c3 C6041800 		movb	$0, (%rax,%rbx)	#, MEM[(char_type &)_116]
 2178 00c7 488B7C24 		movq	16(%rsp), %rdi	# MEM[(const struct basic_string *)&D.76151], pretmp_137
 2178      10
 2205              	# /usr/include/c++/7/bits/basic_string.h:220: 	if (!_M_is_local())
 2207 00cc 488D4510 		leaq	16(%rbp), %rax	#, tmp177
 2208 00d0 4839C7   		cmpq	%rax, %rdi	# tmp177, pretmp_137
 2209 00d3 740B     		je	.L150	#,
 2215              	# /usr/include/c++/7/ext/new_allocator.h:125: 	::operator delete(__p);
 2217 00d5 E8000000 		call	_ZdlPv@PLT	#
 2217      00
 2219      0000
 2221              	.L150:
 2233              	# /usr/include/c++/7/bits/basic_string.h:440:       { _M_construct(__str._M_data(), __str._M_data()
 2235 00e0 4D8B3424 		movq	(%r12), %r14	# MEM[(const struct basic_string *)_89], _173
 2240              	# /usr/include/c++/7/bits/basic_string.h:149: 	: allocator_type(std::move(__a)), _M_p(__dat) { }
 2242 00e4 488D4510 		leaq	16(%rbp), %rax	#, tmp179
 2246              	# /usr/include/c++/7/bits/basic_string.h:440:       { _M_construct(__str._M_data(), __str._M_data()
 2248 00e8 498B5C24 		movq	8(%r12), %rbx	# MEM[(const struct basic_string *)_89 + 8B], _172
 2248      08
 2252              	# /usr/include/c++/7/bits/basic_string.h:149: 	: allocator_type(std::move(__a)), _M_p(__dat) { }
 2254 00ed 48894424 		movq	%rax, 16(%rsp)	# tmp179, MEM[(struct _Alloc_hider *)&arg]._M_p
 2254      10
 2265              	# /usr/include/c++/7/bits/basic_string.tcc:211: 	if (__gnu_cxx::__is_null_pointer(__beg) && __beg !
 2267 00f2 4C89F0   		movq	%r14, %rax	# _173, tmp224
 2268 00f5 4801D8   		addq	%rbx, %rax	# _172, tmp224
 2269 00f8 7409     		je	.L153	#,
 2270 00fa 4D85F6   		testq	%r14, %r14	# _173
 2271 00fd 0F842402 		je	.L200	#,
 2271      0000
 2272              	.L153:
 2273              	# /usr/include/c++/7/bits/basic_string.tcc:215: 	size_type __dnew = static_cast<size_type>(std::dis
 2275 0103 48895C24 		movq	%rbx, 8(%rsp)	# _172, __dnew
 2275      08
 2276              	# /usr/include/c++/7/bits/basic_string.tcc:217: 	if (__dnew > size_type(_S_local_capacity))
 2278 0108 4883FB0F 		cmpq	$15, %rbx	#, _172
 2279 010c 0F87CE00 		ja	.L201	#,
 2279      0000
 2284              	# /usr/include/c++/7/bits/basic_string.h:337: 	if (__n == 1)
 2286 0112 4883FB01 		cmpq	$1, %rbx	#, _172
 2287 0116 0F854401 		jne	.L160	#,
 2287      0000
 2288              	# /usr/include/c++/7/bits/basic_string.h:338: 	  traits_type::assign(*__d, *__s);
 2290 011c 410FB606 		movzbl	(%r14), %eax	# MEM[(const char_type &)_173], _124
 2294              	# /usr/include/c++/7/bits/char_traits.h:285:       { __c1 = __c2; }
 2296 0120 88442420 		movb	%al, 32(%rsp)	# _124, MEM[(char_type &)&arg + 16]
 2297 0124 488D4510 		leaq	16(%rbp), %rax	#, prephitmp_6
 2299              	.L161:
 2309              	# /usr/include/c++/7/bits/basic_string.h:172:       { _M_string_length = __length; }
 2311 0128 48895C24 		movq	%rbx, 24(%rsp)	# _172, MEM[(size_type *)&arg + 8B]
 2311      18
 2328              	# /usr/include/c++/7/bits/basic_string.h:6280:       return __ostream_insert(__os, __str.data(), __
 2330 012d 488D3D00 		leaq	_ZSt4cerr(%rip), %rdi	#,
 2330      000000
 2346              	# /usr/include/c++/7/bits/char_traits.h:285:       { __c1 = __c2; }
 2348 0134 C6041800 		movb	$0, (%rax,%rbx)	#, MEM[(char_type &)_127]
 2365              	# /usr/include/c++/7/bits/basic_string.h:6280:       return __ostream_insert(__os, __str.data(), __
 2367 0138 488B5424 		movq	24(%rsp), %rdx	# MEM[(const struct basic_string *)&arg + 8B],
 2367      18
 2368 013d 488B7424 		movq	16(%rsp), %rsi	# MEM[(const struct basic_string *)&arg],
 2368      10
 2369              	.LEHB5:
 2370 0142 E8000000 		call	_ZSt16__ostream_insertIcSt11char_traitsIcEERSt13basic_ostreamIT_T0_ES6_PKS3_l@PLT	#
 2370      00
 2372              	.LEHE5:
 2380              	# /usr/include/c++/7/bits/basic_string.h:211:       { return _M_data() == _M_local_data(); }
 2382 0147 488B7C24 		movq	16(%rsp), %rdi	# MEM[(const struct basic_string *)&arg], _38
 2382      10
 2386              	# /usr/include/c++/7/bits/basic_string.h:220: 	if (!_M_is_local())
 2388 014c 4883C510 		addq	$16, %rbp	#, tmp205
 2390 0150 4839EF   		cmpq	%rbp, %rdi	# tmp205, _38
 2391 0153 7405     		je	.L162	#,
 2397              	# /usr/include/c++/7/ext/new_allocator.h:125: 	::operator delete(__p);
 2399 0155 E8000000 		call	_ZdlPv@PLT	#
 2399      00
 2401              	.L162:
 2413              	# /usr/include/c++/7/ostream:591:     { return flush(__os.put(__os.widen('\n'))); }
 2416 015a 488B0500 		movq	_ZSt4cerr(%rip), %rax	# cerr._vptr.basic_ostream, cerr._vptr.basic_ostream
 2416      000000
 2419              	# /usr/include/c++/7/bits/basic_ios.h:450:       { return __check_facet(_M_ctype).widen(__c); }
 2422 0161 488D1500 		leaq	_ZSt4cerr(%rip), %rdx	#, tmp206
 2422      000000
 2424 0168 488B40E8 		movq	-24(%rax), %rax	# MEM[(long int *)_128 + -24B], MEM[(long int *)_128 + -24B]
 2426 016c 488B9C02 		movq	240(%rdx,%rax), %rbx	# MEM[(const struct basic_ios *)_131]._M_ctype, _136
 2426      F0000000 
 2430              	# /usr/include/c++/7/bits/basic_ios.h:49:       if (!__f)
 2432 0174 4885DB   		testq	%rbx, %rbx	# _136
 2433 0177 0F84DA01 		je	.L202	#,
 2433      0000
 2439              	# /usr/include/c++/7/bits/locale_facets.h:874: 	if (_M_widen_ok)
 2441 017d 807B3800 		cmpb	$0, 56(%rbx)	#, MEM[(const struct ctype *)_136]._M_widen_ok
 2442 0181 0F84F900 		je	.L164	#,
 2442      0000
 2443 0187 0FBE7343 		movsbl	67(%rbx), %esi	# MEM[(const struct ctype *)_136]._M_widen, prephitmp_11
 2445              	.L165:
 2450              	# /usr/include/c++/7/ostream:591:     { return flush(__os.put(__os.widen('\n'))); }
 2452 018b 488D3D00 		leaq	_ZSt4cerr(%rip), %rdi	#,
 2452      000000
 2453              	.LEHB6:
 2454 0192 E8000000 		call	_ZNSo3putEc@PLT	#
 2454      00
 2458              	# /usr/include/c++/7/ostream:613:     { return __os.flush(); }
 2460 0197 4889C7   		movq	%rax, %rdi	# _134,
 2461 019a E8000000 		call	_ZNSo5flushEv@PLT	#
 2461      00
 2479              	# /usr/include/c++/7/bits/basic_string.h:211:       { return _M_data() == _M_local_data(); }
 2481 019f 498B3C24 		movq	(%r12), %rdi	# MEM[(const struct basic_string *)_89], _158
 2484              	# /usr/include/c++/7/bits/basic_string.h:220: 	if (!_M_is_local())
 2486 01a3 4C39EF   		cmpq	%r13, %rdi	# tmp221, _158
 2487 01a6 7405     		je	.L166	#,
 2493              	# /usr/include/c++/7/ext/new_allocator.h:125: 	::operator delete(__p);
 2495 01a8 E8000000 		call	_ZdlPv@PLT	#
 2495      00
 2497              	.L166:
 2516 01ad 4C89E7   		movq	%r12, %rdi	# _89,
 2517 01b0 E8000000 		call	_ZdlPv@PLT	#
 2517      00
 2526              	# DebugHelper.h:23: }
  16:DebugHelper.h **** {
  17:DebugHelper.h ****     std::vector<std::string> args = {inputs...};
  18:DebugHelper.h ****     for (auto arg : args)
  19:DebugHelper.h ****     {
  20:DebugHelper.h ****         std::cerr << arg;
  21:DebugHelper.h ****     }
  22:DebugHelper.h ****     std::cerr << std::endl;
  23:DebugHelper.h **** }
 2528 01b5 488B4424 		movq	56(%rsp), %rax	# D.83946, tmp225
 2528      38
 2529 01ba 64483304 		xorq	%fs:40, %rax	#, tmp225
 2529      25280000 
 2529      00
 2530 01c3 0F853D01 		jne	.L203	#,
 2530      0000
 2531 01c9 4883C440 		addq	$64, %rsp	#,
 2534 01cd 5B       		popq	%rbx	#
 2536 01ce 5D       		popq	%rbp	#
 2539 01cf 415C     		popq	%r12	#
 2542 01d1 415D     		popq	%r13	#
 2545 01d3 415E     		popq	%r14	#
 2547 01d5 C3       		ret
 2549      84000000 
 2549      0000
 2551              	.L201:
 2563              	# /usr/include/c++/7/bits/basic_string.tcc:219: 	    _M_data(_M_create(__dnew, size_type(0)));
 2565 01e0 488D7424 		leaq	8(%rsp), %rsi	#, tmp194
 2565      08
 2566 01e5 31D2     		xorl	%edx, %edx	#
 2567 01e7 4889EF   		movq	%rbp, %rdi	# tmp220,
 2568 01ea E8000000 		call	_ZNSt7__cxx1112basic_stringIcSt11char_traitsIcESaIcEE9_M_createERmm@PLT	#
 2568      00
 2570              	.LEHE6:
 2573              	# /usr/include/c++/7/bits/basic_string.h:200:       { _M_allocated_capacity = __capacity; }
 2575 01ef 488B5424 		movq	8(%rsp), %rdx	# __dnew, __dnew
 2575      08
 2580              	# /usr/include/c++/7/bits/basic_string.h:168:       { _M_dataplus._M_p = __p; }
 2582 01f4 48894424 		movq	%rax, 16(%rsp)	# _121, MEM[(char * *)&arg]
 2582      10
 2588              	# /usr/include/c++/7/bits/basic_string.h:200:       { _M_allocated_capacity = __capacity; }
 2590 01f9 48895424 		movq	%rdx, 32(%rsp)	# __dnew, MEM[(size_type *)&arg + 16B]
 2590      20
 2592              	.L159:
 2601              	# /usr/include/c++/7/bits/char_traits.h:350: 	return static_cast<char_type*>(__builtin_memcpy(__s1,
 2603 01fe 4889DA   		movq	%rbx, %rdx	# _172,
 2604 0201 4C89F6   		movq	%r14, %rsi	# _173,
 2605 0204 4889C7   		movq	%rax, %rdi	# _121,
 2606 0207 E8000000 		call	memcpy@PLT	#
 2606      00
 2608 020c 488B5C24 		movq	8(%rsp), %rbx	# __dnew, _172
 2608      08
 2610 0211 488B4424 		movq	16(%rsp), %rax	# MEM[(const struct basic_string *)&arg], prephitmp_6
 2610      10
 2611 0216 E90DFFFF 		jmp	.L161	#
 2611      FF
 2613      00
 2615              	.L199:
 2650              	# /usr/include/c++/7/bits/basic_string.tcc:219: 	    _M_data(_M_create(__dnew, size_type(0)));
 2652 0220 488D7424 		leaq	8(%rsp), %rsi	#, tmp169
 2652      08
 2653 0225 31D2     		xorl	%edx, %edx	#
 2654 0227 4C89E7   		movq	%r12, %rdi	# _89,
 2655              	.LEHB7:
 2656 022a E8000000 		call	_ZNSt7__cxx1112basic_stringIcSt11char_traitsIcESaIcEE9_M_createERmm@PLT	#
 2656      00
 2658              	.LEHE7:
 2661              	# /usr/include/c++/7/bits/basic_string.h:200:       { _M_allocated_capacity = __capacity; }
 2663 022f 488B5424 		movq	8(%rsp), %rdx	# __dnew, __dnew
 2663      08
 2668              	# /usr/include/c++/7/bits/basic_string.h:168:       { _M_dataplus._M_p = __p; }
 2670 0234 49890424 		movq	%rax, (%r12)	# prephitmp_27, MEM[(char * *)_89]
 2676              	# /usr/include/c++/7/bits/basic_string.h:200:       { _M_allocated_capacity = __capacity; }
 2678 0238 49895424 		movq	%rdx, 16(%r12)	# __dnew, MEM[(size_type *)_89 + 16B]
 2678      10
 2680              	.L147:
 2689              	# /usr/include/c++/7/bits/char_traits.h:350: 	return static_cast<char_type*>(__builtin_memcpy(__s1,
 2691 023d 4889DA   		movq	%rbx, %rdx	# _104,
 2692 0240 4C89F6   		movq	%r14, %rsi	# pretmp_260,
 2693 0243 4889C7   		movq	%rax, %rdi	# prephitmp_27,
 2694 0246 E8000000 		call	memcpy@PLT	#
 2694      00
 2696 024b 488B5C24 		movq	8(%rsp), %rbx	# __dnew, _104
 2696      08
 2698 0250 498B0424 		movq	(%r12), %rax	# MEM[(const struct basic_string *)_89], prephitmp_27
 2699 0254 E965FEFF 		jmp	.L149	#
 2699      FF
 2701      000000
 2703              	.L160:
 2738              	# /usr/include/c++/7/bits/basic_string.tcc:225: 	  { this->_S_copy_chars(_M_data(), __beg, __end); 
 2740 0260 488D4510 		leaq	16(%rbp), %rax	#, prephitmp_6
 2747              	# /usr/include/c++/7/bits/char_traits.h:348: 	if (__n == 0)
 2749 0264 4885DB   		testq	%rbx, %rbx	# _172
 2750 0267 0F84BBFE 		je	.L161	#,
 2750      FFFF
 2751 026d EB8F     		jmp	.L159	#
 2755              	.L148:
 2796 0270 4885DB   		testq	%rbx, %rbx	# _104
 2797 0273 0F8445FE 		je	.L149	#,
 2797      FFFF
 2798 0279 EBC2     		jmp	.L147	#
 2800      00
 2802              	.L164:
 2836              	# /usr/include/c++/7/bits/locale_facets.h:876: 	this->_M_widen_init();
 2838 0280 4889DF   		movq	%rbx, %rdi	# _136,
 2839              	.LEHB8:
 2840 0283 E8000000 		call	_ZNKSt5ctypeIcE13_M_widen_initEv@PLT	#
 2840      00
 2842              	# /usr/include/c++/7/bits/locale_facets.h:877: 	return this->do_widen(__c);
 2844 0288 488B03   		movq	(%rbx), %rax	# MEM[(const struct ctype *)_136].D.30160._vptr.facet, MEM[(const struct ctype *
 2845 028b 488D1500 		leaq	_ZNKSt5ctypeIcE8do_widenEc(%rip), %rdx	#, tmp211
 2845      000000
 2846 0292 BE0A0000 		movl	$10, %esi	#, prephitmp_11
 2846      00
 2847 0297 488B4030 		movq	48(%rax), %rax	# MEM[(int (*__vtbl_ptr_type) () *)_145 + 48B], _146
 2848 029b 4839D0   		cmpq	%rdx, %rax	# tmp211, _146
 2849 029e 0F84E7FE 		je	.L165	#,
 2849      FFFF
 2850 02a4 4889DF   		movq	%rbx, %rdi	# _136,
 2851 02a7 FFD0     		call	*%rax	# _146
 2853              	.LEHE8:
 2854 02a9 0FBEF0   		movsbl	%al, %esi	# _152, prephitmp_11
 2855 02ac E9DAFEFF 		jmp	.L165	#
 2855      FF
 2858      000000
 2859              	.L197:
 2878              	# /usr/include/c++/7/bits/basic_string.tcc:219: 	    _M_data(_M_create(__dnew, size_type(0)));
 2880 02b8 488D7424 		leaq	8(%rsp), %rsi	#, tmp154
 2880      08
 2881 02bd 31D2     		xorl	%edx, %edx	#
 2882 02bf 4889EF   		movq	%rbp, %rdi	# tmp220,
 2883              	.LEHB9:
 2884 02c2 E8000000 		call	_ZNSt7__cxx1112basic_stringIcSt11char_traitsIcESaIcEE9_M_createERmm@PLT	#
 2884      00
 2886              	.LEHE9:
 2889              	# /usr/include/c++/7/bits/basic_string.h:200:       { _M_allocated_capacity = __capacity; }
 2891 02c7 488B5424 		movq	8(%rsp), %rdx	# __dnew, __dnew
 2891      08
 2896              	# /usr/include/c++/7/bits/basic_string.h:168:       { _M_dataplus._M_p = __p; }
 2898 02cc 48894424 		movq	%rax, 16(%rsp)	# _67, MEM[(char * *)&D.76151]
 2898      10
 2904              	# /usr/include/c++/7/bits/basic_string.h:200:       { _M_allocated_capacity = __capacity; }
 2906 02d1 48895424 		movq	%rdx, 32(%rsp)	# __dnew, MEM[(size_type *)&D.76151 + 16B]
 2906      20
 2908              	.L142:
 2917              	# /usr/include/c++/7/bits/char_traits.h:350: 	return static_cast<char_type*>(__builtin_memcpy(__s1,
 2919 02d6 4C89EA   		movq	%r13, %rdx	# tmp152,
 2920 02d9 4C89E6   		movq	%r12, %rsi	# inputs#0,
 2921 02dc 4889C7   		movq	%rax, %rdi	# _67,
 2922 02df E8000000 		call	memcpy@PLT	#
 2922      00
 2924 02e4 488B4424 		movq	8(%rsp), %rax	# __dnew, prephitmp_5
 2924      08
 2925 02e9 488B5C24 		movq	16(%rsp), %rbx	# MEM[(const struct basic_string *)&D.76151], pretmp_162
 2925      10
 2926 02ee E96DFDFF 		jmp	.L144	#
 2926      FF
 2929      00
 2930              	.L143:
 2931              	# /usr/include/c++/7/bits/char_traits.h:348: 	if (__n == 0)
 2933 02f8 4885C0   		testq	%rax, %rax	# tmp152
 2934 02fb 0F845FFD 		je	.L144	#,
 2934      FFFF
 2941              	# /usr/include/c++/7/bits/basic_string.tcc:225: 	  { this->_S_copy_chars(_M_data(), __beg, __end); 
 2943 0301 4889D8   		movq	%rbx, %rax	# tmp150, _67
 2945 0304 EBD0     		jmp	.L142	#
 2947              	.L203:
 2957              	# DebugHelper.h:23: }
 2959 0306 E8000000 		call	__stack_chk_fail@PLT	#
 2959      00
 2961              	.L198:
 2980              	# /usr/include/c++/7/bits/basic_string.tcc:212: 	  std::__throw_logic_error(__N("basic_string::"
 2982 030b 488D3D00 		leaq	.LC6(%rip), %rdi	#,
 2982      000000
 2983              	.LEHB10:
 2984 0312 E8000000 		call	_ZSt19__throw_logic_errorPKc@PLT	#
 2984      00
 2986              	.LEHE10:
 2987              	.L178:
 2998              	# /usr/include/c++/7/bits/stl_uninitialized.h:86: 	  __catch(...)
 3001 0317 4889C7   		movq	%rax, %rdi	# tmp185,
 3002 031a C5F877   		vzeroupper
 3003 031d E8000000 		call	__cxa_begin_catch@PLT	#
 3003      00
 3005              	.LEHB11:
 3006              	# /usr/include/c++/7/bits/stl_uninitialized.h:89: 	      __throw_exception_again;
 3008 0322 E8000000 		call	__cxa_rethrow@PLT	#
 3008      00
 3010              	.LEHE11:
 3011              	.L200:
 3030              	# /usr/include/c++/7/bits/basic_string.tcc:212: 	  std::__throw_logic_error(__N("basic_string::"
 3032 0327 488D3D00 		leaq	.LC6(%rip), %rdi	#,
 3032      000000
 3033              	.LEHB12:
 3034 032e E8000000 		call	_ZSt19__throw_logic_errorPKc@PLT	#
 3034      00
 3036              	.LEHE12:
 3037              	.L176:
 3038 0333 4889C3   		movq	%rax, %rbx	#, tmp215
 3039 0336 C5F877   		vzeroupper
 3040              	.L169:
 3063              	# /usr/include/c++/7/bits/basic_string.h:211:       { return _M_data() == _M_local_data(); }
 3065 0339 498B3C24 		movq	(%r12), %rdi	# MEM[(const struct basic_string *)_89], _37
 3068              	# /usr/include/c++/7/bits/basic_string.h:220: 	if (!_M_is_local())
 3070 033d 4C39EF   		cmpq	%r13, %rdi	# tmp221, _37
 3071 0340 7405     		je	.L170	#,
 3077              	# /usr/include/c++/7/ext/new_allocator.h:125: 	::operator delete(__p);
 3079 0342 E8000000 		call	_ZdlPv@PLT	#
 3079      00
 3081              	.L170:
 3100 0347 4C89E7   		movq	%r12, %rdi	# _89,
 3101 034a E8000000 		call	_ZdlPv@PLT	#
 3101      00
 3103 034f 4889DF   		movq	%rbx, %rdi	# tmp215,
 3104              	.LEHB13:
 3105 0352 E8000000 		call	_Unwind_Resume@PLT	#
 3105      00
 3107              	.LEHE13:
 3108              	.L202:
 3109              	.LEHB14:
 3124              	# /usr/include/c++/7/bits/basic_ios.h:50: 	__throw_bad_cast();
 3126 0357 E8000000 		call	_ZSt16__throw_bad_castv@PLT	#
 3126      00
 3128              	.LEHE14:
 3129              	.L177:
 3130 035c 4889C3   		movq	%rax, %rbx	#, tmp187
 3147              	# /usr/include/c++/7/bits/stl_uninitialized.h:86: 	  __catch(...)
 3149 035f C5F877   		vzeroupper
 3150 0362 E8000000 		call	__cxa_end_catch@PLT	#
 3150      00
 3165              	# /usr/include/c++/7/ext/new_allocator.h:125: 	::operator delete(__p);
 3167 0367 4C89E7   		movq	%r12, %rdi	# _89,
 3168 036a E8000000 		call	_ZdlPv@PLT	#
 3168      00
 3170              	.L156:
 3183              	# /usr/include/c++/7/bits/basic_string.h:211:       { return _M_data() == _M_local_data(); }
 3185 036f 488B7C24 		movq	16(%rsp), %rdi	# MEM[(const struct basic_string *)&D.76151], _97
 3185      10
 3189              	# /usr/include/c++/7/bits/basic_string.h:220: 	if (!_M_is_local())
 3191 0374 4883C510 		addq	$16, %rbp	#, tmp193
 3193 0378 4839EF   		cmpq	%rbp, %rdi	# tmp193, _97
 3194 037b 7405     		je	.L157	#,
 3200              	# /usr/include/c++/7/ext/new_allocator.h:125: 	::operator delete(__p);
 3202 037d E8000000 		call	_ZdlPv@PLT	#
 3202      00
 3204              	.L157:
 3205 0382 4889DF   		movq	%rbx, %rdi	# tmp186,
 3206              	.LEHB15:
 3207 0385 E8000000 		call	_Unwind_Resume@PLT	#
 3207      00
 3209              	.L139:
 3226              	# /usr/include/c++/7/bits/basic_string.tcc:212: 	  std::__throw_logic_error(__N("basic_string::"
 3228 038a 488D3D00 		leaq	.LC6(%rip), %rdi	#,
 3228      000000
 3230 0391 E8000000 		call	_ZSt19__throw_logic_errorPKc@PLT	#
 3230      00
 3232              	.LEHE15:
 3233              	.L179:
 3234 0396 4889C3   		movq	%rax, %rbx	#, tmp186
 3235 0399 C5F877   		vzeroupper
 3236 039c EBD1     		jmp	.L156	#
 3238              	.L175:
 3254              	# /usr/include/c++/7/bits/basic_string.h:211:       { return _M_data() == _M_local_data(); }
 3256 039e 488B7C24 		movq	16(%rsp), %rdi	# MEM[(const struct basic_string *)&arg], _41
 3256      10
 3259              	# /usr/include/c++/7/bits/basic_string.h:220: 	if (!_M_is_local())
 3261 03a3 4883C510 		addq	$16, %rbp	#, tmp214
 3263 03a7 4889C3   		movq	%rax, %rbx	#, tmp216
 3265 03aa 4839EF   		cmpq	%rbp, %rdi	# tmp214, _41
 3266 03ad 740A     		je	.L194	#,
 3272              	# /usr/include/c++/7/ext/new_allocator.h:125: 	::operator delete(__p);
 3274 03af C5F877   		vzeroupper
 3275 03b2 E8000000 		call	_ZdlPv@PLT	#
 3275      00
 3277 03b7 EB80     		jmp	.L169	#
 3279              	.L194:
 3280 03b9 C5F877   		vzeroupper
 3281 03bc E978FFFF 		jmp	.L169	#
 3281      FF
 3292              		.section	.gcc_except_table
 3293 001b 00       		.align 4
 3294              	.LLSDA3697:
 3295 001c FF       		.byte	0xff
 3296 001d 9B       		.byte	0x9b
 3298              	.LLSDATTD3697:
 3299 001f 01       		.byte	0x1
 3301              	.LLSDACSB3697:
 3350              	.LLSDACSE3697:
 3351 0065 01       		.byte	0x1
 3352 0066 00       		.byte	0
 3353 0067 00       		.align 4
 3354 0068 00000000 		.long	0
 3355              	
 3356              	.LLSDATT3697:
 3357              		.section	.text._ZN5debug9WriteLineIJPKcEEEvDpT_,"axG",@progbits,_ZN5debug9WriteLineIJPKcEEEvDpT_,c
 3359              		.section	.text._ZN13quicksortcopy11adjust_heapI11SortableReflPFbPS1_S2_EEEvPT_T0_S7_S5_T1_,"axG",@
 3361              		.weak	_ZN13quicksortcopy11adjust_heapI11SortableReflPFbPS1_S2_EEEvPT_T0_S7_S5_T1_
 3363              	_ZN13quicksortcopy11adjust_heapI11SortableReflPFbPS1_S2_EEEvPT_T0_S7_S5_T1_:
   1:Quicksort_Copy.h **** 
   2:Quicksort_Copy.h **** #ifndef QUICKSORT_COPY_H
   3:Quicksort_Copy.h **** #define QUICKSORT_COPY_H
   4:Quicksort_Copy.h **** 
   5:Quicksort_Copy.h **** #include <utility>
   6:Quicksort_Copy.h **** #include <algorithm>
   7:Quicksort_Copy.h **** #include <inttypes.h>
   8:Quicksort_Copy.h **** 
   9:Quicksort_Copy.h **** #include "CustomMath.h"
  10:Quicksort_Copy.h **** #include "BoseNelsonParameter.generated.h"
  11:Quicksort_Copy.h **** #include "InsertionSort.h"
  12:Quicksort_Copy.h **** 
  13:Quicksort_Copy.h **** namespace quicksortcopy
  14:Quicksort_Copy.h **** {
  15:Quicksort_Copy.h **** 
  16:Quicksort_Copy.h **** #define S_threshold 16
  17:Quicksort_Copy.h **** 
  18:Quicksort_Copy.h **** template <typename TValueType, typename TDistance, typename TCompare>
  19:Quicksort_Copy.h **** void push_heap(TValueType* first, TDistance holeIndex, TDistance topIndex, TValueType value, TCompa
  20:Quicksort_Copy.h **** {
  21:Quicksort_Copy.h ****     TDistance parent = (holeIndex - 1) / 2;
  22:Quicksort_Copy.h ****     while (holeIndex > topIndex && compare(first + parent, &value))
  23:Quicksort_Copy.h ****     {
  24:Quicksort_Copy.h ****         *(first + holeIndex) = std::move(*(first + parent));
  25:Quicksort_Copy.h ****         holeIndex = parent;
  26:Quicksort_Copy.h ****         parent = (holeIndex - 1) / 2;
  27:Quicksort_Copy.h ****     }
  28:Quicksort_Copy.h ****     *(first + holeIndex) = std::move(value);
  29:Quicksort_Copy.h **** }
  30:Quicksort_Copy.h **** 
  31:Quicksort_Copy.h **** template <typename TValueType, typename TDistance, typename TCompare>
  32:Quicksort_Copy.h **** void adjust_heap(TValueType* first, TDistance holeIndex, TDistance len, TValueType value, TCompare 
 3369 0000 4157     		pushq	%r15	#
 3372 0002 4989FF   		movq	%rdi, %r15	# first, first
 3373 0005 4156     		pushq	%r14	#
 3376 0007 4155     		pushq	%r13	#
 3379 0009 4989D5   		movq	%rdx, %r13	# len, len
 3380 000c 4154     		pushq	%r12	#
 3383 000e 55       		pushq	%rbp	#
 3386 000f 53       		pushq	%rbx	#
 3389 0010 4C89CB   		movq	%r9, %rbx	# compare, compare
 3390 0013 4883EC58 		subq	$88, %rsp	#,
 3392              	# Quicksort_Copy.h:32: void adjust_heap(TValueType* first, TDistance holeIndex, TDistance len, TVal
 3394 0017 64488B04 		movq	%fs:40, %rax	#, tmp188
 3394      25280000 
 3394      00
 3395 0020 48894424 		movq	%rax, 72(%rsp)	# tmp188, D.83965
 3395      48
 3396 0025 31C0     		xorl	%eax, %eax	# tmp188
 3398              	# Quicksort_Copy.h:36:     while (secondChild < (len - 1) / 2)
  33:Quicksort_Copy.h **** {
  34:Quicksort_Copy.h ****     const TDistance topIndex = holeIndex;
  35:Quicksort_Copy.h ****     TDistance secondChild = holeIndex;
  36:Quicksort_Copy.h ****     while (secondChild < (len - 1) / 2)
 3400 0027 488D42FF 		leaq	-1(%rdx), %rax	#, tmp142
 3401              	# Quicksort_Copy.h:32: void adjust_heap(TValueType* first, TDistance holeIndex, TDistance len, TVal
  32:Quicksort_Copy.h **** {
 3403 002b 48897424 		movq	%rsi, 16(%rsp)	# holeIndex, %sfp
 3403      10
 3404              	# Quicksort_Copy.h:36:     while (secondChild < (len - 1) / 2)
 3406 0030 4889C5   		movq	%rax, %rbp	# tmp142, tmp143
 3407              	# Quicksort_Copy.h:32: void adjust_heap(TValueType* first, TDistance holeIndex, TDistance len, TVal
  32:Quicksort_Copy.h **** {
 3409 0033 48894C24 		movq	%rcx, 24(%rsp)	# value, %sfp
 3409      18
 3410              	# Quicksort_Copy.h:36:     while (secondChild < (len - 1) / 2)
 3412 0038 48C1ED3F 		shrq	$63, %rbp	#, tmp143
 3413              	# Quicksort_Copy.h:32: void adjust_heap(TValueType* first, TDistance holeIndex, TDistance len, TVal
  32:Quicksort_Copy.h **** {
 3415 003c 4C894424 		movq	%r8, 32(%rsp)	# value, %sfp
 3415      20
 3416              	# Quicksort_Copy.h:36:     while (secondChild < (len - 1) / 2)
 3418 0041 4801C5   		addq	%rax, %rbp	# tmp142, tmp144
 3419 0044 4889D0   		movq	%rdx, %rax	# len, _98
 3420 0047 83E001   		andl	$1, %eax	#, _98
 3421 004a 48D1FD   		sarq	%rbp	# tmp145
 3422 004d 48894424 		movq	%rax, 40(%rsp)	# _98, %sfp
 3422      28
 3423 0052 4839EE   		cmpq	%rbp, %rsi	# tmp145, holeIndex
 3424 0055 0F8D7501 		jge	.L205	#,
 3424      0000
 3425 005b 4989F6   		movq	%rsi, %r14	# holeIndex, holeIndex
 3426 005e EB03     		jmp	.L206	#
 3430              	.L209:
 3431              	# Quicksort_Copy.h:32: void adjust_heap(TValueType* first, TDistance holeIndex, TDistance len, TVal
  32:Quicksort_Copy.h **** {
 3433 0060 4D89E6   		movq	%r12, %r14	# holeIndex, holeIndex
 3435              	.L206:
 3436              	# Quicksort_Copy.h:38:         secondChild = 2 * (secondChild + 1);
  37:Quicksort_Copy.h ****     {
  38:Quicksort_Copy.h ****         secondChild = 2 * (secondChild + 1);
 3438 0063 498D4601 		leaq	1(%r14), %rax	#, tmp146
 3439 0067 4C8D2400 		leaq	(%rax,%rax), %r12	#, holeIndex
 3441              	# Quicksort_Copy.h:39:         if (compare(first + secondChild, first + (secondChild - 1)))
  39:Quicksort_Copy.h ****         if (compare(first + secondChild, first + (secondChild - 1)))
 3443 006b 48C1E005 		salq	$5, %rax	#, _6
 3444 006f 498D0C07 		leaq	(%r15,%rax), %rcx	#, _9
 3446 0073 48894C24 		movq	%rcx, 8(%rsp)	# _9, %sfp
 3446      08
 3447 0078 498D7407 		leaq	-16(%r15,%rax), %rsi	#, tmp148
 3447      F0
 3448 007d 4889CF   		movq	%rcx, %rdi	# _9,
 3449 0080 FFD3     		call	*%rbx	# compare
 3451 0082 488B4C24 		movq	8(%rsp), %rcx	# %sfp, _9
 3451      08
 3452 0087 84C0     		testb	%al, %al	# _39
 3453 0089 740F     		je	.L207	#,
 3454              	# Quicksort_Copy.h:41:             secondChild--;
  40:Quicksort_Copy.h ****         {
  41:Quicksort_Copy.h ****             secondChild--;
 3456 008b 4983EC01 		subq	$1, %r12	#, holeIndex
 3458 008f 4C89E2   		movq	%r12, %rdx	# holeIndex, tmp149
 3459 0092 48C1E204 		salq	$4, %rdx	#, tmp149
 3460 0096 498D0C17 		leaq	(%r15,%rdx), %rcx	#, _9
 3461              	.L207:
 3462              	# Quicksort_Copy.h:43:         *(first + holeIndex) = std::move(*(first + secondChild));
  42:Quicksort_Copy.h ****         }
  43:Quicksort_Copy.h ****         *(first + holeIndex) = std::move(*(first + secondChild));
 3464 009a 4D89F0   		movq	%r14, %r8	# holeIndex, holeIndex
 3465 009d C5FA6F01 		vmovdqu	(%rcx), %xmm0	#* _9, *_9
 3466 00a1 49C1E004 		salq	$4, %r8	#, holeIndex
 3467 00a5 C4817811 		vmovups	%xmm0, (%r15,%r8)	# *_9,
 3467      0407
 3469              	# Quicksort_Copy.h:36:     while (secondChild < (len - 1) / 2)
  36:Quicksort_Copy.h ****     {
 3471 00ab 4939EC   		cmpq	%rbp, %r12	# tmp145, holeIndex
 3472 00ae 7CB0     		jl	.L209	#,
 3473              	# Quicksort_Copy.h:47:     if ((len & 1) == 0 && secondChild == (len - 2) / 2)
  44:Quicksort_Copy.h ****         holeIndex = secondChild;
  45:Quicksort_Copy.h ****     }
  46:Quicksort_Copy.h **** 
  47:Quicksort_Copy.h ****     if ((len & 1) == 0 && secondChild == (len - 2) / 2)
 3475 00b0 48837C24 		cmpq	$0, 40(%rsp)	#, %sfp
 3475      2800
 3476 00b6 7525     		jne	.L210	#,
 3478              	.L214:
 3479              	# Quicksort_Copy.h:47:     if ((len & 1) == 0 && secondChild == (len - 2) / 2)
 3481 00b8 498D45FE 		leaq	-2(%r13), %rax	#, tmp156
 3482 00bc 4989C5   		movq	%rax, %r13	# tmp156, tmp158
 3484 00bf 49C1ED3F 		shrq	$63, %r13	#, tmp158
 3485 00c3 4901C5   		addq	%rax, %r13	# tmp156, tmp159
 3486 00c6 49D1FD   		sarq	%r13	# tmp160
 3487 00c9 4D39E5   		cmpq	%r12, %r13	# holeIndex, tmp160
 3488 00cc 0F84BE00 		je	.L211	#,
 3488      0000
 3489 00d2 4C89E2   		movq	%r12, %rdx	# holeIndex, tmp169
 3490 00d5 48C1E204 		salq	$4, %rdx	#, tmp169
 3491 00d9 498D0C17 		leaq	(%r15,%rdx), %rcx	#, _9
 3493              	.L210:
 3494 00dd 488B4424 		movq	24(%rsp), %rax	# %sfp, value
 3494      18
 3496 00e2 48894424 		movq	%rax, 48(%rsp)	# value, value
 3496      30
 3497 00e7 488B4424 		movq	32(%rsp), %rax	# %sfp, value
 3497      20
 3499 00ec 48894424 		movq	%rax, 56(%rsp)	# value, value
 3499      38
 3503              	# Quicksort_Copy.h:21:     TDistance parent = (holeIndex - 1) / 2;
  21:Quicksort_Copy.h ****     while (holeIndex > topIndex && compare(first + parent, &value))
 3505 00f1 498D4424 		leaq	-1(%r12), %rax	#, tmp170
 3505      FF
 3506 00f6 4989C6   		movq	%rax, %r14	# tmp170, tmp171
 3507 00f9 49C1EE3F 		shrq	$63, %r14	#, tmp171
 3508 00fd 4901C6   		addq	%rax, %r14	# tmp170, tmp172
 3509 0100 49D1FE   		sarq	%r14	# parent
 3511              	# Quicksort_Copy.h:22:     while (holeIndex > topIndex && compare(first + parent, &value))
  22:Quicksort_Copy.h ****     {
 3513 0103 4C3B6424 		cmpq	16(%rsp), %r12	# %sfp, holeIndex
 3513      10
 3514 0108 7E5A     		jle	.L212	#,
 3515 010a 488D6C24 		leaq	48(%rsp), %rbp	#, tmp187
 3515      30
 3516 010f EB33     		jmp	.L213	#
 3519      000000
 3520              	.L230:
 3521              	# Quicksort_Copy.h:26:         parent = (holeIndex - 1) / 2;
  26:Quicksort_Copy.h ****     }
 3523 0118 498D56FF 		leaq	-1(%r14), %rdx	#, _58
 3524              	# Quicksort_Copy.h:24:         *(first + holeIndex) = std::move(*(first + parent));
  24:Quicksort_Copy.h ****         holeIndex = parent;
 3526 011c C4C17A6F 		vmovdqu	0(%r13), %xmm0	# *_53, *_53
 3526      4500
 3527 0122 4D89F4   		movq	%r14, %r12	# parent, holeIndex
 3529              	# Quicksort_Copy.h:26:         parent = (holeIndex - 1) / 2;
  26:Quicksort_Copy.h ****     }
 3531 0125 4889D0   		movq	%rdx, %rax	# _58, tmp178
 3532 0128 48C1E83F 		shrq	$63, %rax	#, tmp178
 3533              	# Quicksort_Copy.h:24:         *(first + holeIndex) = std::move(*(first + parent));
  24:Quicksort_Copy.h ****         holeIndex = parent;
 3535 012c C5F81101 		vmovups	%xmm0, (%rcx)	# *_53, *_146
 3537              	# Quicksort_Copy.h:26:         parent = (holeIndex - 1) / 2;
  26:Quicksort_Copy.h ****     }
 3539 0130 4801D0   		addq	%rdx, %rax	# _58, tmp179
 3540 0133 48D1F8   		sarq	%rax	# tmp180
 3542              	# Quicksort_Copy.h:22:     while (holeIndex > topIndex && compare(first + parent, &value))
  22:Quicksort_Copy.h ****     {
 3544 0136 4C397424 		cmpq	%r14, 16(%rsp)	# holeIndex, %sfp
 3544      10
 3545 013b 0F8D8700 		jge	.L229	#,
 3545      0000
 3546              	# Quicksort_Copy.h:26:         parent = (holeIndex - 1) / 2;
  26:Quicksort_Copy.h ****     }
 3548 0141 4989C6   		movq	%rax, %r14	# tmp180, parent
 3550              	.L213:
 3551              	# Quicksort_Copy.h:22:     while (holeIndex > topIndex && compare(first + parent, &value))
  22:Quicksort_Copy.h ****     {
 3553 0144 4D89F5   		movq	%r14, %r13	# parent, tmp174
 3554 0147 4889EE   		movq	%rbp, %rsi	# tmp187,
 3555 014a 49C1E504 		salq	$4, %r13	#, tmp174
 3556 014e 4D01FD   		addq	%r15, %r13	# first, _53
 3557 0151 4C89EF   		movq	%r13, %rdi	# _53,
 3558 0154 FFD3     		call	*%rbx	# compare
 3560 0156 4C89E1   		movq	%r12, %rcx	# holeIndex, holeIndex
 3561 0159 48C1E104 		salq	$4, %rcx	#, holeIndex
 3562 015d 4C01F9   		addq	%r15, %rcx	# first, _9
 3563 0160 84C0     		testb	%al, %al	# _54
 3564 0162 75B4     		jne	.L230	#,
 3566              	.L212:
 3569              	# Quicksort_Copy.h:55: }
  48:Quicksort_Copy.h ****     {
  49:Quicksort_Copy.h ****         secondChild = 2 * (secondChild + 1);
  50:Quicksort_Copy.h ****         *(first + holeIndex) = std::move(*(first + (secondChild - 1)));
  51:Quicksort_Copy.h ****         holeIndex = secondChild - 1;
  52:Quicksort_Copy.h ****     }
  53:Quicksort_Copy.h **** 
  54:Quicksort_Copy.h ****     push_heap(first, holeIndex, topIndex, std::move(value), compare);
  55:Quicksort_Copy.h **** }
 3571 0164 488B4424 		movq	72(%rsp), %rax	# D.83965, tmp189
 3571      48
 3572 0169 64483304 		xorq	%fs:40, %rax	#, tmp189
 3572      25280000 
 3572      00
 3575              	# Quicksort_Copy.h:28:     *(first + holeIndex) = std::move(value);
  28:Quicksort_Copy.h **** }
 3577 0172 C5FA6F44 		vmovdqu	48(%rsp), %xmm0	# value, value
 3577      2430
 3578 0178 C5F81101 		vmovups	%xmm0, (%rcx)	# value, *prephitmp_127
 3582              	# Quicksort_Copy.h:55: }
 3584 017c 757D     		jne	.L231	#,
 3585 017e 4883C458 		addq	$88, %rsp	#,
 3588 0182 5B       		popq	%rbx	#
 3591 0183 5D       		popq	%rbp	#
 3593 0184 415C     		popq	%r12	#
 3595 0186 415D     		popq	%r13	#
 3597 0188 415E     		popq	%r14	#
 3599 018a 415F     		popq	%r15	#
 3602 018c C3       		ret
 3606              	.L211:
 3608              	# Quicksort_Copy.h:49:         secondChild = 2 * (secondChild + 1);
  49:Quicksort_Copy.h ****         *(first + holeIndex) = std::move(*(first + (secondChild - 1)));
 3610 0190 498D4424 		leaq	1(%r12), %rax	#, tmp162
 3610      01
 3612              	# Quicksort_Copy.h:50:         *(first + holeIndex) = std::move(*(first + (secondChild - 1)));
  50:Quicksort_Copy.h ****         holeIndex = secondChild - 1;
 3614 0195 4C89E1   		movq	%r12, %rcx	# holeIndex, holeIndex
 3616              	# Quicksort_Copy.h:51:         holeIndex = secondChild - 1;
  51:Quicksort_Copy.h ****     }
 3618 0198 4C8D6400 		leaq	-1(%rax,%rax), %r12	#, holeIndex
 3618      FF
 3620              	# Quicksort_Copy.h:50:         *(first + holeIndex) = std::move(*(first + (secondChild - 1)));
  50:Quicksort_Copy.h ****         holeIndex = secondChild - 1;
 3622 019d 4889C2   		movq	%rax, %rdx	# tmp162, tmp165
 3623 01a0 48C1E104 		salq	$4, %rcx	#, holeIndex
 3624 01a4 48C1E205 		salq	$5, %rdx	#, tmp165
 3625 01a8 C4C17A6F 		vmovdqu	-16(%r15,%rdx), %xmm0	# *_23, *_23
 3625      4417F0
 3626 01af 4C89E2   		movq	%r12, %rdx	# holeIndex, tmp169
 3627 01b2 48C1E204 		salq	$4, %rdx	#, tmp169
 3628 01b6 C4C17811 		vmovups	%xmm0, (%r15,%rcx)	# *_23, *_26
 3628      040F
 3629 01bc 498D0C17 		leaq	(%r15,%rdx), %rcx	#, _9
 3630 01c0 E918FFFF 		jmp	.L210	#
 3630      FF
 3634              	.L229:
 3637              	# Quicksort_Copy.h:22:     while (holeIndex > topIndex && compare(first + parent, &value))
  22:Quicksort_Copy.h ****     {
 3639 01c8 4C89E9   		movq	%r13, %rcx	# _53, _9
 3640 01cb EB97     		jmp	.L212	#
 3644              	.L205:
 3647              	# Quicksort_Copy.h:47:     if ((len & 1) == 0 && secondChild == (len - 2) / 2)
  47:Quicksort_Copy.h ****     {
 3649 01d0 48837C24 		cmpq	$0, 40(%rsp)	#, %sfp
 3649      2800
 3650 01d6 4989F4   		movq	%rsi, %r12	# holeIndex, holeIndex
 3651 01d9 0F84D9FE 		je	.L214	#,
 3651      FFFF
 3653 01df 488B4424 		movq	32(%rsp), %rax	# %sfp, value
 3653      20
 3655 01e4 49C1E404 		salq	$4, %r12	#, holeIndex
 3656 01e8 48894C24 		movq	%rcx, 48(%rsp)	# value, value
 3656      30
 3657 01ed 4B8D0C27 		leaq	(%r15,%r12), %rcx	#, _9
 3659 01f1 48894424 		movq	%rax, 56(%rsp)	# value, value
 3659      38
 3661 01f6 E969FFFF 		jmp	.L212	#
 3661      FF
 3663              	.L231:
 3664              	# Quicksort_Copy.h:55: }
 3666 01fb E8000000 		call	__stack_chk_fail@PLT	#
 3666      00
 3671              		.section	.text._ZN13quicksortcopy11heap_selectI11SortableRefPFbPS1_S2_EEEvPT_S6_S6_T0_,"axG",@prog
 3673              		.weak	_ZN13quicksortcopy11heap_selectI11SortableRefPFbPS1_S2_EEEvPT_S6_S6_T0_
 3675              	_ZN13quicksortcopy11heap_selectI11SortableRefPFbPS1_S2_EEEvPT_S6_S6_T0_:
  56:Quicksort_Copy.h **** 
  57:Quicksort_Copy.h **** template <typename TValueType, typename TCompare>
  58:Quicksort_Copy.h **** void make_heap(TValueType* first, TValueType* last, TCompare& compare)
  59:Quicksort_Copy.h **** {
  60:Quicksort_Copy.h ****     if (last - first < 2)
  61:Quicksort_Copy.h ****     {
  62:Quicksort_Copy.h ****         return;
  63:Quicksort_Copy.h ****     }
  64:Quicksort_Copy.h **** 
  65:Quicksort_Copy.h ****     const long int len = last - first;
  66:Quicksort_Copy.h ****     long int parent = (len - 2) / 2;
  67:Quicksort_Copy.h ****     while (true)
  68:Quicksort_Copy.h ****     {
  69:Quicksort_Copy.h ****         TValueType value = std::move(*(first + parent));
  70:Quicksort_Copy.h ****         adjust_heap(first, parent, len, std::move(value), compare);
  71:Quicksort_Copy.h ****         if (parent == 0)
  72:Quicksort_Copy.h ****         {
  73:Quicksort_Copy.h ****             return;
  74:Quicksort_Copy.h ****         }
  75:Quicksort_Copy.h ****         parent--;
  76:Quicksort_Copy.h ****     }
  77:Quicksort_Copy.h **** }
  78:Quicksort_Copy.h **** 
  79:Quicksort_Copy.h **** template <typename TValueType, typename TCompare>
  80:Quicksort_Copy.h **** inline
  81:Quicksort_Copy.h **** void pop_heap(TValueType* first, TValueType* last, TValueType* result, TCompare& compare)
  82:Quicksort_Copy.h **** {
  83:Quicksort_Copy.h ****     TValueType value = std::move(*result);
  84:Quicksort_Copy.h ****     *result = std::move(*first);
  85:Quicksort_Copy.h ****     adjust_heap(first, (long int) 0, last - first, std::move(value), compare);
  86:Quicksort_Copy.h **** }
  87:Quicksort_Copy.h **** 
  88:Quicksort_Copy.h **** template <typename TValueType, typename TCompare>
  89:Quicksort_Copy.h **** void sort_heap(TValueType* first, TValueType* last, TCompare& compare)
  90:Quicksort_Copy.h **** {
  91:Quicksort_Copy.h ****     while (last - first > 1)
  92:Quicksort_Copy.h ****     {
  93:Quicksort_Copy.h ****         --last;
  94:Quicksort_Copy.h ****         pop_heap(first, last, last, compare);
  95:Quicksort_Copy.h ****     }
  96:Quicksort_Copy.h **** }
  97:Quicksort_Copy.h **** 
  98:Quicksort_Copy.h **** 
  99:Quicksort_Copy.h **** template <typename TValueType, typename TCompare>
 100:Quicksort_Copy.h **** void heap_select(TValueType* first, TValueType* middle, TValueType* last, TCompare compare)
 3680 0000 4157     		pushq	%r15	#
 3685              	# Quicksort_Copy.h:60:     if (last - first < 2)
  60:Quicksort_Copy.h ****     {
 3687 0002 4889F0   		movq	%rsi, %rax	# middle, _24
 3690              	# Quicksort_Copy.h:100: void heap_select(TValueType* first, TValueType* middle, TValueType* last, T
 3692 0005 4156     		pushq	%r14	#
 3697              	# Quicksort_Copy.h:60:     if (last - first < 2)
  60:Quicksort_Copy.h ****     {
 3699 0007 4829F8   		subq	%rdi, %rax	# first, _24
 3702              	# Quicksort_Copy.h:100: void heap_select(TValueType* first, TValueType* middle, TValueType* last, T
 3704 000a 4155     		pushq	%r13	#
 3707 000c 4989CD   		movq	%rcx, %r13	# compare, compare
 3708 000f 4154     		pushq	%r12	#
 3711 0011 4989FC   		movq	%rdi, %r12	# first, first
 3712 0014 55       		pushq	%rbp	#
 3715 0015 4889F5   		movq	%rsi, %rbp	# middle, middle
 3716 0018 53       		pushq	%rbx	#
 3719 0019 4883EC18 		subq	$24, %rsp	#,
 3721              	# Quicksort_Copy.h:100: void heap_select(TValueType* first, TValueType* middle, TValueType* last, T
 3723 001d 48891424 		movq	%rdx, (%rsp)	# last, %sfp
 3726              	# Quicksort_Copy.h:60:     if (last - first < 2)
  60:Quicksort_Copy.h ****     {
 3728 0021 48894424 		movq	%rax, 8(%rsp)	# _24, %sfp
 3728      08
 3729 0026 4883F810 		cmpq	$16, %rax	#, _24
 3730 002a 7E51     		jle	.L233	#,
 3731              	# Quicksort_Copy.h:65:     const long int len = last - first;
  65:Quicksort_Copy.h ****     long int parent = (len - 2) / 2;
 3733 002c 4989C7   		movq	%rax, %r15	# _24, tmp137
 3734 002f 49C1FF04 		sarq	$4, %r15	#, tmp137
 3736              	# Quicksort_Copy.h:66:     long int parent = (len - 2) / 2;
  66:Quicksort_Copy.h ****     while (true)
 3738 0033 498D57FE 		leaq	-2(%r15), %rdx	#, tmp138
 3740 0037 4889D0   		movq	%rdx, %rax	# tmp138, tmp139
 3741 003a 48C1E83F 		shrq	$63, %rax	#, tmp139
 3742 003e 4801D0   		addq	%rdx, %rax	# tmp138, tmp140
 3743 0041 48D1F8   		sarq	%rax	# tmp140
 3744 0044 4989C2   		movq	%rax, %r10	# parent, tmp142
 3745 0047 4989C6   		movq	%rax, %r14	# tmp140, parent
 3747 004a 49C1E204 		salq	$4, %r10	#, tmp142
 3748 004e 4A8D1C17 		leaq	(%rdi,%r10), %rbx	#, ivtmp.554
 3749 0052 EB08     		jmp	.L235	#
 3753              	.L248:
 3755              	# Quicksort_Copy.h:75:         parent--;
  75:Quicksort_Copy.h ****     }
 3757 0058 4983EE01 		subq	$1, %r14	#, parent
 3759              	.L235:
 3760              	# Quicksort_Copy.h:69:         TValueType value = std::move(*(first + parent));
  69:Quicksort_Copy.h ****         adjust_heap(first, parent, len, std::move(value), compare);
 3762 005c 488B0B   		movq	(%rbx), %rcx	# MEM[base: _50, offset: 0], value
 3764              	# Quicksort_Copy.h:70:         adjust_heap(first, parent, len, std::move(value), compare);
  70:Quicksort_Copy.h ****         if (parent == 0)
 3766 005f 4D89E9   		movq	%r13, %r9	# compare,
 3767 0062 4C89FA   		movq	%r15, %rdx	# tmp137,
 3768 0065 4C89F6   		movq	%r14, %rsi	# parent,
 3769 0068 4C8B4308 		movq	8(%rbx), %r8	# MEM[base: _50, offset: 0], tmp162
 3770 006c 4C89E7   		movq	%r12, %rdi	# first,
 3771 006f 4883EB10 		subq	$16, %rbx	#, ivtmp.554
 3772 0073 E8000000 		call	_ZN13quicksortcopy11adjust_heapI11SortableReflPFbPS1_S2_EEEvPT_T0_S7_S5_T1_	#
 3772      00
 3774              	# Quicksort_Copy.h:71:         if (parent == 0)
  71:Quicksort_Copy.h ****         {
 3776 0078 4D85F6   		testq	%r14, %r14	# parent
 3777 007b 75DB     		jne	.L248	#,
 3779              	.L233:
 3784              	# Quicksort_Copy.h:103:     for (TValueType* i = middle; i < last; ++i)
 101:Quicksort_Copy.h **** {
 102:Quicksort_Copy.h ****     make_heap(first, middle, compare);
 103:Quicksort_Copy.h ****     for (TValueType* i = middle; i < last; ++i)
 3786 007d 488B0424 		movq	(%rsp), %rax	# %sfp, last
 3787 0081 4839C5   		cmpq	%rax, %rbp	# last, middle
 3788 0084 7366     		jnb	.L246	#,
 3791              	# Quicksort_Copy.h:85:     adjust_heap(first, (long int) 0, last - first, std::move(value), compare
  85:Quicksort_Copy.h **** }
 3793 0086 4C8B7424 		movq	8(%rsp), %r14	# %sfp, _24
 3793      08
 3794 008b 488D5D10 		leaq	16(%rbp), %rbx	#, middle
 3795 008f 4883C00F 		addq	$15, %rax	#, last
 3796 0093 4829D8   		subq	%rbx, %rax	# middle, tmp150
 3797 0096 4883E0F0 		andq	$-16, %rax	#, tmp152
 3798 009a 4C8D7C05 		leaq	16(%rbp,%rax), %r15	#, _43
 3798      10
 3799 009f 49C1FE04 		sarq	$4, %r14	#, _24
 3800 00a3 EB0F     		jmp	.L238	#
 3804              	.L237:
 3807              	# Quicksort_Copy.h:103:     for (TValueType* i = middle; i < last; ++i)
 3809 00a8 4889DD   		movq	%rbx, %rbp	# middle, middle
 3811 00ab 4C39FB   		cmpq	%r15, %rbx	# _43, middle
 3812 00ae 743C     		je	.L246	#,
 3813              	.L249:
 3814 00b0 4883C310 		addq	$16, %rbx	#, middle
 3816              	.L238:
 3817              	# Quicksort_Copy.h:105:         if (compare(i, first))
 104:Quicksort_Copy.h ****     {
 105:Quicksort_Copy.h ****         if (compare(i, first))
 3819 00b4 4C89E6   		movq	%r12, %rsi	# first,
 3820 00b7 4889EF   		movq	%rbp, %rdi	# middle,
 3821 00ba 41FFD5   		call	*%r13	# compare
 3823 00bd 84C0     		testb	%al, %al	# _11
 3824 00bf 74E7     		je	.L237	#,
 3828              	# Quicksort_Copy.h:83:     TValueType value = std::move(*result);
  83:Quicksort_Copy.h ****     *result = std::move(*first);
 3830 00c1 488B4D00 		movq	0(%rbp), %rcx	# MEM[base: i_14, offset: 0], value
 3832              	# Quicksort_Copy.h:85:     adjust_heap(first, (long int) 0, last - first, std::move(value), compare
  85:Quicksort_Copy.h **** }
 3834 00c5 4D89E9   		movq	%r13, %r9	# compare,
 3835 00c8 4C89F2   		movq	%r14, %rdx	# tmp147,
 3836 00cb 31F6     		xorl	%esi, %esi	#
 3837              	# Quicksort_Copy.h:83:     TValueType value = std::move(*result);
  83:Quicksort_Copy.h ****     *result = std::move(*first);
 3839 00cd 4C8B4508 		movq	8(%rbp), %r8	# MEM[base: i_14, offset: 0], value
 3840              	# Quicksort_Copy.h:85:     adjust_heap(first, (long int) 0, last - first, std::move(value), compare
  85:Quicksort_Copy.h **** }
 3842 00d1 4C89E7   		movq	%r12, %rdi	# first,
 3843              	# Quicksort_Copy.h:84:     *result = std::move(*first);
  84:Quicksort_Copy.h ****     adjust_heap(first, (long int) 0, last - first, std::move(value), compare);
 3845 00d4 C4C17A6F 		vmovdqu	(%r12), %xmm0	# *first_6(D), *first_6(D)
 3845      0424
 3846 00da C5F81145 		vmovups	%xmm0, 0(%rbp)	# *first_6(D), MEM[base: i_14, offset: 0B]
 3846      00
 3849              	# Quicksort_Copy.h:103:     for (TValueType* i = middle; i < last; ++i)
 103:Quicksort_Copy.h ****     {
 3851 00df 4889DD   		movq	%rbx, %rbp	# middle, middle
 3855              	# Quicksort_Copy.h:85:     adjust_heap(first, (long int) 0, last - first, std::move(value), compare
  85:Quicksort_Copy.h **** }
 3857 00e2 E8000000 		call	_ZN13quicksortcopy11adjust_heapI11SortableReflPFbPS1_S2_EEEvPT_T0_S7_S5_T1_	#
 3857      00
 3861              	# Quicksort_Copy.h:103:     for (TValueType* i = middle; i < last; ++i)
 103:Quicksort_Copy.h ****     {
 3863 00e7 4C39FB   		cmpq	%r15, %rbx	# _43, middle
 3864 00ea 75C4     		jne	.L249	#,
 3866              	.L246:
 3868              	# Quicksort_Copy.h:110: }
 106:Quicksort_Copy.h ****         {
 107:Quicksort_Copy.h ****             pop_heap(first, middle, i, compare);
 108:Quicksort_Copy.h ****         }
 109:Quicksort_Copy.h ****     }
 110:Quicksort_Copy.h **** }
 3870 00ec 4883C418 		addq	$24, %rsp	#,
 3873 00f0 5B       		popq	%rbx	#
 3875 00f1 5D       		popq	%rbp	#
 3878 00f2 415C     		popq	%r12	#
 3881 00f4 415D     		popq	%r13	#
 3884 00f6 415E     		popq	%r14	#
 3886 00f8 415F     		popq	%r15	#
 3888 00fa C3       		ret
 3892              		.text
 3893      00000000 
 3895              	_ZN13quicksortcopy14introsort_loopI11SortableReflPFbPS1_S2_EEEvPT_S6_T0_T1_.constprop.61:
 111:Quicksort_Copy.h **** 
 112:Quicksort_Copy.h **** template <typename TValueType, typename TCompare>
 113:Quicksort_Copy.h **** inline
 114:Quicksort_Copy.h **** void partial_sort(TValueType* first, TValueType* middle, TValueType* last, TCompare compare)
 115:Quicksort_Copy.h **** {
 116:Quicksort_Copy.h ****     heap_select(first, middle, last, compare);
 117:Quicksort_Copy.h ****     sort_heap(first, middle, compare);
 118:Quicksort_Copy.h **** }
 119:Quicksort_Copy.h **** 
 120:Quicksort_Copy.h **** //---------------------------------------------------------------------------------------------
 121:Quicksort_Copy.h **** 
 122:Quicksort_Copy.h **** template<typename TValueType, typename TCompare>
 123:Quicksort_Copy.h **** void unguarded_linear_insert(TValueType* last, TCompare compare)
 124:Quicksort_Copy.h **** {
 125:Quicksort_Copy.h ****     TValueType val = std::move(*last);
 126:Quicksort_Copy.h ****     TValueType* next = last;
 127:Quicksort_Copy.h ****     --next;
 128:Quicksort_Copy.h ****     while (compare(&val, next))
 129:Quicksort_Copy.h ****     {
 130:Quicksort_Copy.h ****         *last = std::move(*next);
 131:Quicksort_Copy.h ****         last = next;
 132:Quicksort_Copy.h ****         --next;
 133:Quicksort_Copy.h ****     }
 134:Quicksort_Copy.h ****     *last = std::move(val);
 135:Quicksort_Copy.h **** }
 136:Quicksort_Copy.h **** 
 137:Quicksort_Copy.h **** template<typename TValueType, typename TCompare>
 138:Quicksort_Copy.h **** inline void unguarded_insertion_sort(TValueType* first, TValueType* last, TCompare compare)
 139:Quicksort_Copy.h **** {
 140:Quicksort_Copy.h ****     for (TValueType* i = first; i != last; ++i)
 141:Quicksort_Copy.h ****     {
 142:Quicksort_Copy.h ****         unguarded_linear_insert(i, compare);
 143:Quicksort_Copy.h ****     }
 144:Quicksort_Copy.h **** }
 145:Quicksort_Copy.h **** 
 146:Quicksort_Copy.h **** template<typename TValueType, typename TCompare>
 147:Quicksort_Copy.h **** void insertion_sort(TValueType* first, TValueType* last, TCompare compare)
 148:Quicksort_Copy.h **** {
 149:Quicksort_Copy.h ****     if (first == last) 
 150:Quicksort_Copy.h ****     {
 151:Quicksort_Copy.h ****         return;
 152:Quicksort_Copy.h ****     }
 153:Quicksort_Copy.h **** 
 154:Quicksort_Copy.h ****     for (TValueType* i = first + 1; i != last; ++i)
 155:Quicksort_Copy.h ****     {
 156:Quicksort_Copy.h ****         if (compare(i, first))
 157:Quicksort_Copy.h ****         {
 158:Quicksort_Copy.h ****             TValueType val = std::move(*i);
 159:Quicksort_Copy.h ****             std::move_backward(first, i, i + 1);
 160:Quicksort_Copy.h ****             *first = std::move(val);
 161:Quicksort_Copy.h ****         }
 162:Quicksort_Copy.h ****         else
 163:Quicksort_Copy.h ****         {
 164:Quicksort_Copy.h ****             unguarded_linear_insert(i, compare);
 165:Quicksort_Copy.h ****         }
 166:Quicksort_Copy.h ****         
 167:Quicksort_Copy.h ****     }
 168:Quicksort_Copy.h **** }
 169:Quicksort_Copy.h **** 
 170:Quicksort_Copy.h **** template<typename TValueType, typename TCompare>
 171:Quicksort_Copy.h **** void final_insertion_sort(TValueType* first, TValueType* last, TCompare compare)
 172:Quicksort_Copy.h **** {
 173:Quicksort_Copy.h ****     if (last - first > S_threshold)
 174:Quicksort_Copy.h ****     {
 175:Quicksort_Copy.h ****         insertion_sort(first, first + S_threshold, compare);
 176:Quicksort_Copy.h ****         unguarded_insertion_sort(first + S_threshold, last, compare);
 177:Quicksort_Copy.h ****     }
 178:Quicksort_Copy.h ****     else
 179:Quicksort_Copy.h ****     {
 180:Quicksort_Copy.h ****         insertion_sort(first, last, compare);
 181:Quicksort_Copy.h ****     }
 182:Quicksort_Copy.h **** }
 183:Quicksort_Copy.h **** 
 184:Quicksort_Copy.h **** template<typename TValueType, typename TCompare>
 185:Quicksort_Copy.h **** TValueType* unguarded_partition(TValueType* first, TValueType* last, TValueType* pivot, TCompare co
 186:Quicksort_Copy.h **** {
 187:Quicksort_Copy.h ****     while (true)
 188:Quicksort_Copy.h ****     {
 189:Quicksort_Copy.h ****         while (compare(first, pivot))
 190:Quicksort_Copy.h ****         {
 191:Quicksort_Copy.h ****             ++first;
 192:Quicksort_Copy.h ****         }
 193:Quicksort_Copy.h ****         --last;
 194:Quicksort_Copy.h ****         while (compare(pivot, last))
 195:Quicksort_Copy.h ****         {
 196:Quicksort_Copy.h ****             --last;
 197:Quicksort_Copy.h ****         }
 198:Quicksort_Copy.h ****         if (!(first < last))
 199:Quicksort_Copy.h ****         {
 200:Quicksort_Copy.h ****             return first;
 201:Quicksort_Copy.h ****         }
 202:Quicksort_Copy.h ****         std::iter_swap(first, last);
 203:Quicksort_Copy.h ****         ++first;
 204:Quicksort_Copy.h ****     }
 205:Quicksort_Copy.h **** }
 206:Quicksort_Copy.h **** 
 207:Quicksort_Copy.h **** template<typename TValueType, typename TCompare>
 208:Quicksort_Copy.h **** void move_median_to_first(TValueType* result, TValueType* one, TValueType* two, TValueType* three, 
 209:Quicksort_Copy.h **** {
 210:Quicksort_Copy.h ****     if (compare(one, two))
 211:Quicksort_Copy.h ****     {
 212:Quicksort_Copy.h ****         if (compare(two, three))
 213:Quicksort_Copy.h ****         {
 214:Quicksort_Copy.h ****             std::iter_swap(result, two);
 215:Quicksort_Copy.h ****         }
 216:Quicksort_Copy.h ****         else if (compare(one, three))
 217:Quicksort_Copy.h ****         {
 218:Quicksort_Copy.h ****             std::iter_swap(result, three);
 219:Quicksort_Copy.h ****         }
 220:Quicksort_Copy.h ****         else
 221:Quicksort_Copy.h ****         {
 222:Quicksort_Copy.h ****             std::iter_swap(result, one);
 223:Quicksort_Copy.h ****         }
 224:Quicksort_Copy.h ****         
 225:Quicksort_Copy.h ****     }
 226:Quicksort_Copy.h ****     else if (compare(one, three))
 227:Quicksort_Copy.h ****     {
 228:Quicksort_Copy.h ****         std::iter_swap(result, one);
 229:Quicksort_Copy.h ****     }
 230:Quicksort_Copy.h ****     else if (compare(two, three))
 231:Quicksort_Copy.h ****     {
 232:Quicksort_Copy.h ****         std::iter_swap(result, three);
 233:Quicksort_Copy.h ****     }
 234:Quicksort_Copy.h ****     else
 235:Quicksort_Copy.h ****     {
 236:Quicksort_Copy.h ****         std::iter_swap(result, two);
 237:Quicksort_Copy.h ****     }
 238:Quicksort_Copy.h **** }
 239:Quicksort_Copy.h **** 
 240:Quicksort_Copy.h **** template<typename TValueType, typename TCompare>
 241:Quicksort_Copy.h **** inline 
 242:Quicksort_Copy.h **** TValueType* unguarded_partition_pivot(TValueType* first, TValueType* last, TCompare compare)
 243:Quicksort_Copy.h **** {
 244:Quicksort_Copy.h ****     TValueType* mid = first + (last - first) / 2;
 245:Quicksort_Copy.h ****     move_median_to_first(first, first + 1, mid, last - 1, compare);
 246:Quicksort_Copy.h ****     return unguarded_partition(first + 1, last, first, compare);
 247:Quicksort_Copy.h **** }
 248:Quicksort_Copy.h **** 
 249:Quicksort_Copy.h **** 
 250:Quicksort_Copy.h **** template <typename TValueType, typename TSize, typename TCompare>
 251:Quicksort_Copy.h **** void introsort_loop(TValueType* first, TValueType* last, TSize depth_limit, TCompare compare)
 3900              	# Quicksort_Copy.h:253:     while (last - first > S_threshold)
 252:Quicksort_Copy.h **** {
 253:Quicksort_Copy.h ****     while (last - first > S_threshold)
 3902 0af0 4889F0   		movq	%rsi, %rax	# last, _5
 3903 0af3 4829F8   		subq	%rdi, %rax	# first, _5
 3904 0af6 483D0001 		cmpq	$256, %rax	#, _5
 3904      0000
 3905 0afc 0F8EA601 		jle	.L277	#,
 3905      0000
 3906              	# Quicksort_Copy.h:251: void introsort_loop(TValueType* first, TValueType* last, TSize depth_limit,
 251:Quicksort_Copy.h **** {
 3908 0b02 4156     		pushq	%r14	#
 3911 0b04 4989D6   		movq	%rdx, %r14	# depth_limit, depth_limit
 3912 0b07 4155     		pushq	%r13	#
 3915 0b09 4989FD   		movq	%rdi, %r13	# first, first
 3916 0b0c 4154     		pushq	%r12	#
 3919 0b0e 4C8D6710 		leaq	16(%rdi), %r12	#, _9
 3920 0b12 55       		pushq	%rbp	#
 3923 0b13 53       		pushq	%rbx	#
 3927              	# Quicksort_Copy.h:255:         if (depth_limit == 0)
 254:Quicksort_Copy.h **** 	{
 255:Quicksort_Copy.h ****         if (depth_limit == 0)
 3929 0b14 4885D2   		testq	%rdx, %rdx	# depth_limit
 3930 0b17 0F848C01 		je	.L282	#,
 3930      0000
 3932              	.L254:
 3935              	# Quicksort_Copy.h:244:     TValueType* mid = first + (last - first) / 2;
 244:Quicksort_Copy.h ****     move_median_to_first(first, first + 1, mid, last - 1, compare);
 3937 0b1d 48C1F805 		sarq	$5, %rax	#, tmp126
 3942              	# Measure.h:193:     return *left < *right;
 193:Measure.h     **** }
 3944 0b21 498B4D10 		movq	16(%r13), %rcx	# MEM[(long unsigned int *)first_3(D) + 16B], _72
 3951              	# Quicksort_Copy.h:260:         --depth_limit;
 256:Quicksort_Copy.h ****         {
 257:Quicksort_Copy.h ****             partial_sort(first, last, last, compare);
 258:Quicksort_Copy.h ****             return;
 259:Quicksort_Copy.h ****         }
 260:Quicksort_Copy.h ****         --depth_limit;
 3953 0b25 4983EE01 		subq	$1, %r14	#, depth_limit
 3957              	# Quicksort_Copy.h:244:     TValueType* mid = first + (last - first) / 2;
 244:Quicksort_Copy.h ****     move_median_to_first(first, first + 1, mid, last - 1, compare);
 3959 0b29 48C1E004 		salq	$4, %rax	#, tmp127
 3960 0b2d 4C8B46F0 		movq	-16(%rsi), %r8	# MEM[(long unsigned int *)last_22 + -16B], pretmp_39
 3961 0b31 4C01E8   		addq	%r13, %rax	# first, mid
 3963 0b34 498B7D00 		movq	0(%r13), %rdi	# MEM[(struct SortableRef &)first_3(D)], prephitmp_130
 3968              	# Measure.h:193:     return *left < *right;
 193:Measure.h     **** }
 3970 0b38 488B10   		movq	(%rax), %rdx	# MEM[(long unsigned int *)mid_36], _73
 3972 0b3b 4D8B4D08 		movq	8(%r13), %r9	# MEM[(struct SortableRef &)first_3(D) + 8], pretmp_155
 3975              	# Quicksort_Copy.h:210:     if (compare(one, two))
 210:Quicksort_Copy.h ****     {
 3977 0b3f 4839D1   		cmpq	%rdx, %rcx	# _73, _72
 3978 0b42 0F831801 		jnb	.L256	#,
 3978      0000
 3980              	# Quicksort_Copy.h:212:         if (compare(two, three))
 212:Quicksort_Copy.h ****         {
 3982 0b48 4939D0   		cmpq	%rdx, %r8	# _73, pretmp_39
 3983 0b4b 0F871D01 		ja	.L262	#,
 3983      0000
 3985              	# Quicksort_Copy.h:216:         else if (compare(one, three))
 216:Quicksort_Copy.h ****         {
 3987 0b51 4939C8   		cmpq	%rcx, %r8	# _72, pretmp_39
 3988 0b54 0F873601 		ja	.L280	#,
 3988      0000
 3990              	.L281:
 3994              	# /usr/include/c++/7/bits/move.h:199:       __a = _GLIBCXX_MOVE(__b);
 3997 0b5a C4C17A6F 		vmovdqu	16(%r13), %xmm0	# MEM[(struct SortableRef &)first_3(D) + 16], MEM[(struct SortableRef &)fi
 3997      4510
 3998              	# /usr/include/c++/7/bits/move.h:200:       __b = _GLIBCXX_MOVE(__tmp);
 4000 0b60 49897D10 		movq	%rdi, 16(%r13)	# prephitmp_130, MEM[(struct SortableRef *)first_3(D) + 16B]
 4001 0b64 4D894D18 		movq	%r9, 24(%r13)	# pretmp_155, MEM[(struct SortableRef *)first_3(D) + 24B]
 4002              	# /usr/include/c++/7/bits/move.h:199:       __a = _GLIBCXX_MOVE(__b);
 4004 0b68 C4C17811 		vmovups	%xmm0, 0(%r13)	# MEM[(struct SortableRef &)first_3(D) + 16], *first_3(D)
 4004      4500
 4006 0b6e 488B7EF0 		movq	-16(%rsi), %rdi	# MEM[(long unsigned int *)last_22 + -16B], prephitmp_130
 4008              	.L258:
 4009 0b72 498B5500 		movq	0(%r13), %rdx	# MEM[(long unsigned int *)first_3(D)], prephitmp_141
 4010 0b76 4C89E3   		movq	%r12, %rbx	# _9, ivtmp.573
 4019              	# Quicksort_Copy.h:251: void introsort_loop(TValueType* first, TValueType* last, TSize depth_limit,
 251:Quicksort_Copy.h **** {
 4021 0b79 4889F0   		movq	%rsi, %rax	# last, last
 4025              	.L261:
 4033              	# Measure.h:193:     return *left < *right;
 193:Measure.h     **** }
 4035 0b80 488B0B   		movq	(%rbx), %rcx	# MEM[base: first_40, offset: 0B], _87
 4036 0b83 4889DD   		movq	%rbx, %rbp	# ivtmp.573, last
 4040              	# Quicksort_Copy.h:189:         while (compare(first, pivot))
 189:Quicksort_Copy.h ****         {
 4042 0b86 4839D1   		cmpq	%rdx, %rcx	# prephitmp_141, _87
 4043 0b89 7236     		jb	.L263	#,
 4044 0b8b 4883E810 		subq	$16, %rax	#, last
 4046              	# Quicksort_Copy.h:194:         while (compare(pivot, last))
 194:Quicksort_Copy.h ****         {
 4048 0b8f 4839D7   		cmpq	%rdx, %rdi	# prephitmp_141, prephitmp_130
 4049 0b92 760D     		jbe	.L264	#,
 4053              	.L265:
 4054              	# Quicksort_Copy.h:196:             --last;
 196:Quicksort_Copy.h ****         }
 4056 0b98 4883E810 		subq	$16, %rax	#, last
 4058              	# Quicksort_Copy.h:194:         while (compare(pivot, last))
 194:Quicksort_Copy.h ****         {
 4060 0b9c 483910   		cmpq	%rdx, (%rax)	# prephitmp_141, MEM[base: last_47, offset: 0B]
 4061 0b9f 77F7     		ja	.L265	#,
 4063              	.L264:
 4064              	# Quicksort_Copy.h:198:         if (!(first < last))
 198:Quicksort_Copy.h ****         {
 4066 0ba1 4839C3   		cmpq	%rax, %rbx	# last, ivtmp.573
 4067 0ba4 732A     		jnb	.L283	#,
 4072              	# /usr/include/c++/7/bits/move.h:198:       _Tp __tmp = _GLIBCXX_MOVE(__a);
 4074 0ba6 488B5308 		movq	8(%rbx), %rdx	# MEM[base: first_40, offset: 8], __tmp$reference
 4076              	# /usr/include/c++/7/bits/move.h:199:       __a = _GLIBCXX_MOVE(__b);
 4078 0baa C5FA6F00 		vmovdqu	(%rax), %xmm0	# *last_90, *last_90
 4079 0bae C5F81103 		vmovups	%xmm0, (%rbx)	# *last_90, MEM[base: first_40, offset: 0B]
 4080 0bb2 488B78F0 		movq	-16(%rax), %rdi	# MEM[(long unsigned int *)last_90 + -16B], prephitmp_130
 4081              	# /usr/include/c++/7/bits/move.h:200:       __b = _GLIBCXX_MOVE(__tmp);
 4083 0bb6 488908   		movq	%rcx, (%rax)	# _87, MEM[(struct SortableRef *)last_90]
 4084 0bb9 48895008 		movq	%rdx, 8(%rax)	# __tmp$reference, MEM[(struct SortableRef *)last_90 + 8B]
 4086 0bbd 498B5500 		movq	0(%r13), %rdx	# MEM[(long unsigned int *)first_3(D)], prephitmp_141
 4088              	.L263:
 4089 0bc1 4883C310 		addq	$16, %rbx	#, ivtmp.573
 4090 0bc5 EBB9     		jmp	.L261	#
 4092      00000000 
 4092      00
 4094              	.L283:
 4102              	# Quicksort_Copy.h:263:         introsort_loop(cut, last, depth_limit, compare);
 261:Quicksort_Copy.h ****         TValueType* cut =
 262:Quicksort_Copy.h ****         unguarded_partition_pivot(first, last, compare);
 263:Quicksort_Copy.h ****         introsort_loop(cut, last, depth_limit, compare);
 4104 0bd0 4C89F2   		movq	%r14, %rdx	# depth_limit,
 4105 0bd3 4889DF   		movq	%rbx, %rdi	# ivtmp.573,
 4106 0bd6 E815FFFF 		call	_ZN13quicksortcopy14introsort_loopI11SortableReflPFbPS1_S2_EEEvPT_S6_T0_T1_.constprop.61	#
 4106      FF
 4109              	# Quicksort_Copy.h:253:     while (last - first > S_threshold)
 253:Quicksort_Copy.h **** 	{
 4111 0bdb 4889D8   		movq	%rbx, %rax	# ivtmp.573, _5
 4112 0bde 4C29E8   		subq	%r13, %rax	# first, _5
 4113 0be1 483D0001 		cmpq	$256, %rax	#, _5
 4113      0000
 4114 0be7 7E66     		jle	.L275	#,
 4115 0be9 4889DE   		movq	%rbx, %rsi	# ivtmp.573, last
 4117              	# Quicksort_Copy.h:255:         if (depth_limit == 0)
 255:Quicksort_Copy.h ****         {
 4119 0bec 4D85F6   		testq	%r14, %r14	# depth_limit
 4120 0bef 0F8528FF 		jne	.L254	#,
 4120      FFFF
 4122              	.L252:
 4125              	# Quicksort_Copy.h:116:     heap_select(first, middle, last, compare);
 116:Quicksort_Copy.h ****     sort_heap(first, middle, compare);
 4127 0bf5 488D0D00 		leaq	_ZN11measurement15IteratorCompareI11SortableRefEEbPT_S3_(%rip), %rcx	#,
 4127      000000
 4128 0bfc 4889EA   		movq	%rbp, %rdx	# last,
 4129 0bff 4889EE   		movq	%rbp, %rsi	# last,
 4135              	# Quicksort_Copy.h:85:     adjust_heap(first, (long int) 0, last - first, std::move(value), compare
  85:Quicksort_Copy.h **** }
 4137 0c02 4C8D2500 		leaq	_ZN11measurement15IteratorCompareI11SortableRefEEbPT_S3_(%rip), %r12	#, tmp139
 4137      000000
 4142              	# Quicksort_Copy.h:116:     heap_select(first, middle, last, compare);
 116:Quicksort_Copy.h ****     sort_heap(first, middle, compare);
 4144 0c09 4C89EF   		movq	%r13, %rdi	# first,
 4145 0c0c E8000000 		call	_ZN13quicksortcopy11heap_selectI11SortableRefPFbPS1_S2_EEEvPT_S6_S6_T0_	#
 4145      00
 4148      000000
 4149              	.L255:
 4152              	# Quicksort_Copy.h:93:         --last;
  93:Quicksort_Copy.h ****         pop_heap(first, last, last, compare);
 4154 0c18 4883ED10 		subq	$16, %rbp	#, last
 4158              	# Quicksort_Copy.h:83:     TValueType value = std::move(*result);
  83:Quicksort_Copy.h ****     *result = std::move(*first);
 4160 0c1c 488B4D00 		movq	0(%rbp), %rcx	# MEM[base: last_24, offset: 0], value
 4162              	# Quicksort_Copy.h:85:     adjust_heap(first, (long int) 0, last - first, std::move(value), compare
  85:Quicksort_Copy.h **** }
 4164 0c20 31F6     		xorl	%esi, %esi	#
 4165 0c22 4D89E1   		movq	%r12, %r9	# tmp139,
 4166              	# Quicksort_Copy.h:83:     TValueType value = std::move(*result);
  83:Quicksort_Copy.h ****     *result = std::move(*first);
 4168 0c25 4C8B4508 		movq	8(%rbp), %r8	# MEM[base: last_24, offset: 0], value
 4169              	# Quicksort_Copy.h:85:     adjust_heap(first, (long int) 0, last - first, std::move(value), compare
  85:Quicksort_Copy.h **** }
 4171 0c29 4889EB   		movq	%rbp, %rbx	# last, _27
 4172 0c2c 4C89EF   		movq	%r13, %rdi	# first,
 4173 0c2f 4C29EB   		subq	%r13, %rbx	# first, _27
 4174              	# Quicksort_Copy.h:84:     *result = std::move(*first);
  84:Quicksort_Copy.h ****     adjust_heap(first, (long int) 0, last - first, std::move(value), compare);
 4176 0c32 C4C17A6F 		vmovdqu	0(%r13), %xmm0	# *first_3(D), *first_3(D)
 4176      4500
 4177              	# Quicksort_Copy.h:85:     adjust_heap(first, (long int) 0, last - first, std::move(value), compare
  85:Quicksort_Copy.h **** }
 4179 0c38 4889DA   		movq	%rbx, %rdx	# _27, tmp122
 4180 0c3b 48C1FA04 		sarq	$4, %rdx	#, tmp122
 4181              	# Quicksort_Copy.h:84:     *result = std::move(*first);
  84:Quicksort_Copy.h ****     adjust_heap(first, (long int) 0, last - first, std::move(value), compare);
 4183 0c3f C5F81145 		vmovups	%xmm0, 0(%rbp)	# *first_3(D), MEM[base: last_24, offset: 0B]
 4183      00
 4184              	# Quicksort_Copy.h:85:     adjust_heap(first, (long int) 0, last - first, std::move(value), compare
  85:Quicksort_Copy.h **** }
 4186 0c44 E8000000 		call	_ZN13quicksortcopy11adjust_heapI11SortableReflPFbPS1_S2_EEEvPT_T0_S7_S5_T1_	#
 4186      00
 4190              	# Quicksort_Copy.h:91:     while (last - first > 1)
  91:Quicksort_Copy.h ****     {
 4192 0c49 4883FB10 		cmpq	$16, %rbx	#, _27
 4193 0c4d 7FC9     		jg	.L255	#,
 4195              	.L275:
 4201              	# Quicksort_Copy.h:266: }
 264:Quicksort_Copy.h ****         last = cut;
 265:Quicksort_Copy.h **** 	}
 266:Quicksort_Copy.h **** }
 4203 0c4f 5B       		popq	%rbx	#
 4206 0c50 5D       		popq	%rbp	#
 4208 0c51 415C     		popq	%r12	#
 4210 0c53 415D     		popq	%r13	#
 4213 0c55 415E     		popq	%r14	#
 4215 0c57 C3       		ret
 4217      00000000 
 4219              	.L256:
 4226              	# Quicksort_Copy.h:226:     else if (compare(one, three))
 226:Quicksort_Copy.h ****     {
 4228 0c60 4939C8   		cmpq	%rcx, %r8	# _72, pretmp_39
 4229 0c63 0F87F1FE 		ja	.L281	#,
 4229      FFFF
 4231              	# Quicksort_Copy.h:230:     else if (compare(two, three))
 230:Quicksort_Copy.h ****     {
 4233 0c69 4939D0   		cmpq	%rdx, %r8	# _73, pretmp_39
 4234 0c6c 7722     		ja	.L280	#,
 4236              	.L262:
 4240              	# /usr/include/c++/7/bits/move.h:199:       __a = _GLIBCXX_MOVE(__b);
 4242 0c6e C5FA6F00 		vmovdqu	(%rax), %xmm0	# *mid_36, *mid_36
 4243 0c72 C4C17811 		vmovups	%xmm0, 0(%r13)	# *mid_36, *first_3(D)
 4243      4500
 4245              	# /usr/include/c++/7/bits/move.h:200:       __b = _GLIBCXX_MOVE(__tmp);
 4247 0c78 488938   		movq	%rdi, (%rax)	# prephitmp_130, MEM[(struct SortableRef *)mid_36]
 4248 0c7b 4C894808 		movq	%r9, 8(%rax)	# pretmp_155, MEM[(struct SortableRef *)mid_36 + 8B]
 4250 0c7f 488B7EF0 		movq	-16(%rsi), %rdi	# MEM[(long unsigned int *)last_22 + -16B], prephitmp_130
 4251 0c83 E9EAFEFF 		jmp	.L258	#
 4251      FF
 4253      00000000 
 4255              	.L280:
 4262              	# /usr/include/c++/7/bits/move.h:199:       __a = _GLIBCXX_MOVE(__b);
 4264 0c90 C5FA6F46 		vmovdqu	-16(%rsi), %xmm0	# MEM[(struct SortableRef &)last_22 + 18446744073709551600], MEM[(struct 
 4264      F0
 4265 0c95 C4C17811 		vmovups	%xmm0, 0(%r13)	# MEM[(struct SortableRef &)last_22 + 18446744073709551600], *first_3(D)
 4265      4500
 4267              	# /usr/include/c++/7/bits/move.h:200:       __b = _GLIBCXX_MOVE(__tmp);
 4269 0c9b 48897EF0 		movq	%rdi, -16(%rsi)	# prephitmp_130, MEM[(struct SortableRef *)last_22 + -16B]
 4270 0c9f 4C894EF8 		movq	%r9, -8(%rsi)	# pretmp_155, MEM[(struct SortableRef *)last_22 + -8B]
 4272 0ca3 E9CAFEFF 		jmp	.L258	#
 4272      FF
 4274              	.L277:
 4281 0ca8 C3       		ret
 4282              	.L282:
 4296              	# Quicksort_Copy.h:255:         if (depth_limit == 0)
 255:Quicksort_Copy.h ****         {
 4298 0ca9 4889F5   		movq	%rsi, %rbp	# last, last
 4299 0cac E944FFFF 		jmp	.L252	#
 4299      FF
 4304              		.section	.text._ZSt13__adjust_heapIP11SortableReflS0_N9__gnu_cxx5__ops15_Iter_comp_iterIPFbRS0_S5_
 4306              		.weak	_ZSt13__adjust_heapIP11SortableReflS0_N9__gnu_cxx5__ops15_Iter_comp_iterIPFbRS0_S5_EEEEvT_T0
 4308              	_ZSt13__adjust_heapIP11SortableReflS0_N9__gnu_cxx5__ops15_Iter_comp_iterIPFbRS0_S5_EEEEvT_T0_SA_T1_
 4314 0000 4157     		pushq	%r15	#
 4317 0002 4989FF   		movq	%rdi, %r15	# __first, __first
 4318 0005 4156     		pushq	%r14	#
 4321 0007 4155     		pushq	%r13	#
 4324 0009 4989D5   		movq	%rdx, %r13	# __len, __len
 4325 000c 4154     		pushq	%r12	#
 4328 000e 55       		pushq	%rbp	#
 4331 000f 53       		pushq	%rbx	#
 4334 0010 4C89CB   		movq	%r9, %rbx	# __comp, __comp
 4335 0013 4883EC58 		subq	$88, %rsp	#,
 4337              	# /usr/include/c++/7/bits/stl_heap.h:214:     __adjust_heap(_RandomAccessIterator __first, _Distanc
 4339 0017 64488B04 		movq	%fs:40, %rax	#, tmp189
 4339      25280000 
 4339      00
 4340 0020 48894424 		movq	%rax, 72(%rsp)	# tmp189, D.84138
 4340      48
 4341 0025 31C0     		xorl	%eax, %eax	# tmp189
 4343              	# /usr/include/c++/7/bits/stl_heap.h:219:       while (__secondChild < (__len - 1) / 2)
 4345 0027 488D42FF 		leaq	-1(%rdx), %rax	#, tmp143
 4346              	# /usr/include/c++/7/bits/stl_heap.h:214:     __adjust_heap(_RandomAccessIterator __first, _Distanc
 4348 002b 48897424 		movq	%rsi, 16(%rsp)	# __holeIndex, %sfp
 4348      10
 4349              	# /usr/include/c++/7/bits/stl_heap.h:219:       while (__secondChild < (__len - 1) / 2)
 4351 0030 4889C5   		movq	%rax, %rbp	# tmp143, tmp144
 4352              	# /usr/include/c++/7/bits/stl_heap.h:214:     __adjust_heap(_RandomAccessIterator __first, _Distanc
 4354 0033 48894C24 		movq	%rcx, 24(%rsp)	# __value, %sfp
 4354      18
 4355              	# /usr/include/c++/7/bits/stl_heap.h:219:       while (__secondChild < (__len - 1) / 2)
 4357 0038 48C1ED3F 		shrq	$63, %rbp	#, tmp144
 4358              	# /usr/include/c++/7/bits/stl_heap.h:214:     __adjust_heap(_RandomAccessIterator __first, _Distanc
 4360 003c 4C894424 		movq	%r8, 32(%rsp)	# __value, %sfp
 4360      20
 4361              	# /usr/include/c++/7/bits/stl_heap.h:219:       while (__secondChild < (__len - 1) / 2)
 4363 0041 4801C5   		addq	%rax, %rbp	# tmp143, tmp145
 4364 0044 4889D0   		movq	%rdx, %rax	# __len, _100
 4365 0047 83E001   		andl	$1, %eax	#, _100
 4366 004a 48D1FD   		sarq	%rbp	# tmp146
 4367 004d 48894424 		movq	%rax, 40(%rsp)	# _100, %sfp
 4367      28
 4368 0052 4839EE   		cmpq	%rbp, %rsi	# tmp146, __holeIndex
 4369 0055 0F8D7501 		jge	.L285	#,
 4369      0000
 4370 005b 4989F6   		movq	%rsi, %r14	# __holeIndex, __holeIndex
 4371 005e EB03     		jmp	.L286	#
 4375              	.L289:
 4376              	# /usr/include/c++/7/bits/stl_heap.h:214:     __adjust_heap(_RandomAccessIterator __first, _Distanc
 4378 0060 4D89E6   		movq	%r12, %r14	# __holeIndex, __holeIndex
 4380              	.L286:
 4381              	# /usr/include/c++/7/bits/stl_heap.h:221: 	  __secondChild = 2 * (__secondChild + 1);
 4383 0063 498D4601 		leaq	1(%r14), %rax	#, tmp147
 4384 0067 4C8D2400 		leaq	(%rax,%rax), %r12	#, __holeIndex
 4386              	# /usr/include/c++/7/bits/stl_heap.h:223: 		     __first + (__secondChild - 1)))
 4388 006b 48C1E005 		salq	$5, %rax	#, _5
 4389              	# /usr/include/c++/7/bits/stl_heap.h:222: 	  if (__comp(__first + __secondChild,
 4391 006f 498D0C07 		leaq	(%r15,%rax), %rcx	#, _8
 4395              	# /usr/include/c++/7/bits/predefined_ops.h:143:         { return bool(_M_comp(*__it1, *__it2)); }
 4398 0073 48894C24 		movq	%rcx, 8(%rsp)	# _8, %sfp
 4398      08
 4401              	# /usr/include/c++/7/bits/stl_heap.h:222: 	  if (__comp(__first + __secondChild,
 4403 0078 498D7407 		leaq	-16(%r15,%rax), %rsi	#, tmp149
 4403      F0
 4407              	# /usr/include/c++/7/bits/predefined_ops.h:143:         { return bool(_M_comp(*__it1, *__it2)); }
 4409 007d 4889CF   		movq	%rcx, %rdi	# _8,
 4410 0080 FFD3     		call	*%rbx	# __comp
 4414              	# /usr/include/c++/7/bits/stl_heap.h:222: 	  if (__comp(__first + __secondChild,
 4416 0082 488B4C24 		movq	8(%rsp), %rcx	# %sfp, _8
 4416      08
 4417 0087 84C0     		testb	%al, %al	# _44
 4418 0089 740F     		je	.L287	#,
 4419              	# /usr/include/c++/7/bits/stl_heap.h:224: 	    __secondChild--;
 4421 008b 4983EC01 		subq	$1, %r12	#, __holeIndex
 4423 008f 4C89E2   		movq	%r12, %rdx	# __holeIndex, tmp150
 4424 0092 48C1E204 		salq	$4, %rdx	#, tmp150
 4425 0096 498D0C17 		leaq	(%r15,%rdx), %rcx	#, _8
 4426              	.L287:
 4427              	# /usr/include/c++/7/bits/stl_heap.h:225: 	  *(__first + __holeIndex) = _GLIBCXX_MOVE(*(__first + _
 4429 009a 4D89F0   		movq	%r14, %r8	# __holeIndex, __holeIndex
 4430 009d C5FA6F01 		vmovdqu	(%rcx), %xmm0	#* _8, *_8
 4431 00a1 49C1E004 		salq	$4, %r8	#, __holeIndex
 4432 00a5 C4817811 		vmovups	%xmm0, (%r15,%r8)	# *_8,
 4432      0407
 4434              	# /usr/include/c++/7/bits/stl_heap.h:219:       while (__secondChild < (__len - 1) / 2)
 4436 00ab 4939EC   		cmpq	%rbp, %r12	# tmp146, __holeIndex
 4437 00ae 7CB0     		jl	.L289	#,
 4438              	# /usr/include/c++/7/bits/stl_heap.h:228:       if ((__len & 1) == 0 && __secondChild == (__len - 2
 4440 00b0 48837C24 		cmpq	$0, 40(%rsp)	#, %sfp
 4440      2800
 4441 00b6 7525     		jne	.L290	#,
 4443              	.L294:
 4444              	# /usr/include/c++/7/bits/stl_heap.h:228:       if ((__len & 1) == 0 && __secondChild == (__len - 2
 4446 00b8 498D45FE 		leaq	-2(%r13), %rax	#, tmp157
 4447 00bc 4989C5   		movq	%rax, %r13	# tmp157, tmp159
 4449 00bf 49C1ED3F 		shrq	$63, %r13	#, tmp159
 4450 00c3 4901C5   		addq	%rax, %r13	# tmp157, tmp160
 4451 00c6 49D1FD   		sarq	%r13	# tmp161
 4452 00c9 4D39E5   		cmpq	%r12, %r13	# __holeIndex, tmp161
 4453 00cc 0F84BE00 		je	.L291	#,
 4453      0000
 4454 00d2 4C89E2   		movq	%r12, %rdx	# __holeIndex, tmp170
 4455 00d5 48C1E204 		salq	$4, %rdx	#, tmp170
 4456 00d9 498D0C17 		leaq	(%r15,%rdx), %rcx	#, _8
 4458              	.L290:
 4459 00dd 488B4424 		movq	24(%rsp), %rax	# %sfp, __value
 4459      18
 4461 00e2 48894424 		movq	%rax, 48(%rsp)	# __value, __value
 4461      30
 4462 00e7 488B4424 		movq	32(%rsp), %rax	# %sfp, __value
 4462      20
 4464 00ec 48894424 		movq	%rax, 56(%rsp)	# __value, __value
 4464      38
 4468              	# /usr/include/c++/7/bits/stl_heap.h:132:       _Distance __parent = (__holeIndex - 1) / 2;
 4470 00f1 498D4424 		leaq	-1(%r12), %rax	#, tmp171
 4470      FF
 4471 00f6 4989C6   		movq	%rax, %r14	# tmp171, tmp172
 4472 00f9 49C1EE3F 		shrq	$63, %r14	#, tmp172
 4473 00fd 4901C6   		addq	%rax, %r14	# tmp171, tmp173
 4474 0100 49D1FE   		sarq	%r14	# __parent
 4476              	# /usr/include/c++/7/bits/stl_heap.h:133:       while (__holeIndex > __topIndex && __comp(__first +
 4478 0103 4C3B6424 		cmpq	16(%rsp), %r12	# %sfp, __holeIndex
 4478      10
 4479 0108 7E5A     		jle	.L292	#,
 4480 010a 488D6C24 		leaq	48(%rsp), %rbp	#, tmp188
 4480      30
 4481 010f EB33     		jmp	.L293	#
 4484      000000
 4485              	.L310:
 4486              	# /usr/include/c++/7/bits/stl_heap.h:137: 	  __parent = (__holeIndex - 1) / 2;
 4488 0118 498D56FF 		leaq	-1(%r14), %rdx	#, _61
 4489              	# /usr/include/c++/7/bits/stl_heap.h:135: 	  *(__first + __holeIndex) = _GLIBCXX_MOVE(*(__first + _
 4491 011c C4C17A6F 		vmovdqu	0(%r13), %xmm0	# *_55, *_55
 4491      4500
 4492 0122 4D89F4   		movq	%r14, %r12	# __parent, __holeIndex
 4494              	# /usr/include/c++/7/bits/stl_heap.h:137: 	  __parent = (__holeIndex - 1) / 2;
 4496 0125 4889D0   		movq	%rdx, %rax	# _61, tmp179
 4497 0128 48C1E83F 		shrq	$63, %rax	#, tmp179
 4498              	# /usr/include/c++/7/bits/stl_heap.h:135: 	  *(__first + __holeIndex) = _GLIBCXX_MOVE(*(__first + _
 4500 012c C5F81101 		vmovups	%xmm0, (%rcx)	# *_55, *_148
 4502              	# /usr/include/c++/7/bits/stl_heap.h:137: 	  __parent = (__holeIndex - 1) / 2;
 4504 0130 4801D0   		addq	%rdx, %rax	# _61, tmp180
 4505 0133 48D1F8   		sarq	%rax	# tmp181
 4507              	# /usr/include/c++/7/bits/stl_heap.h:133:       while (__holeIndex > __topIndex && __comp(__first +
 4509 0136 4C397424 		cmpq	%r14, 16(%rsp)	# __holeIndex, %sfp
 4509      10
 4510 013b 0F8D8700 		jge	.L309	#,
 4510      0000
 4511              	# /usr/include/c++/7/bits/stl_heap.h:137: 	  __parent = (__holeIndex - 1) / 2;
 4513 0141 4989C6   		movq	%rax, %r14	# tmp181, __parent
 4515              	.L293:
 4516              	# /usr/include/c++/7/bits/stl_heap.h:133:       while (__holeIndex > __topIndex && __comp(__first +
 4518 0144 4D89F5   		movq	%r14, %r13	# __parent, tmp175
 4521              	# /usr/include/c++/7/bits/predefined_ops.h:177: 	{ return bool(_M_comp(*__it, __val)); }
 4523 0147 4889EE   		movq	%rbp, %rsi	# tmp188,
 4526              	# /usr/include/c++/7/bits/stl_heap.h:133:       while (__holeIndex > __topIndex && __comp(__first +
 4528 014a 49C1E504 		salq	$4, %r13	#, tmp175
 4529 014e 4D01FD   		addq	%r15, %r13	# __first, _55
 4533              	# /usr/include/c++/7/bits/predefined_ops.h:177: 	{ return bool(_M_comp(*__it, __val)); }
 4535 0151 4C89EF   		movq	%r13, %rdi	# _55,
 4536 0154 FFD3     		call	*%rbx	# __comp
 4538 0156 4C89E1   		movq	%r12, %rcx	# __holeIndex, __holeIndex
 4539 0159 48C1E104 		salq	$4, %rcx	#, __holeIndex
 4540 015d 4C01F9   		addq	%r15, %rcx	# __first, _8
 4543              	# /usr/include/c++/7/bits/stl_heap.h:133:       while (__holeIndex > __topIndex && __comp(__first +
 4545 0160 84C0     		testb	%al, %al	# _57
 4546 0162 75B4     		jne	.L310	#,
 4548              	.L292:
 4551              	# /usr/include/c++/7/bits/stl_heap.h:239:     }
 4553 0164 488B4424 		movq	72(%rsp), %rax	# D.84138, tmp190
 4553      48
 4554 0169 64483304 		xorq	%fs:40, %rax	#, tmp190
 4554      25280000 
 4554      00
 4557              	# /usr/include/c++/7/bits/stl_heap.h:139:       *(__first + __holeIndex) = _GLIBCXX_MOVE(__value);
 4559 0172 C5FA6F44 		vmovdqu	48(%rsp), %xmm0	# __value, __value
 4559      2430
 4560 0178 C5F81101 		vmovups	%xmm0, (%rcx)	# __value, *prephitmp_129
 4564              	# /usr/include/c++/7/bits/stl_heap.h:239:     }
 4566 017c 757D     		jne	.L311	#,
 4567 017e 4883C458 		addq	$88, %rsp	#,
 4570 0182 5B       		popq	%rbx	#
 4573 0183 5D       		popq	%rbp	#
 4575 0184 415C     		popq	%r12	#
 4577 0186 415D     		popq	%r13	#
 4579 0188 415E     		popq	%r14	#
 4581 018a 415F     		popq	%r15	#
 4584 018c C3       		ret
 4588              	.L291:
 4590              	# /usr/include/c++/7/bits/stl_heap.h:230: 	  __secondChild = 2 * (__secondChild + 1);
 4592 0190 498D4424 		leaq	1(%r12), %rax	#, tmp163
 4592      01
 4594              	# /usr/include/c++/7/bits/stl_heap.h:231: 	  *(__first + __holeIndex) = _GLIBCXX_MOVE(*(__first
 4596 0195 4C89E1   		movq	%r12, %rcx	# __holeIndex, __holeIndex
 4598              	# /usr/include/c++/7/bits/stl_heap.h:233: 	  __holeIndex = __secondChild - 1;
 4600 0198 4C8D6400 		leaq	-1(%rax,%rax), %r12	#, __holeIndex
 4600      FF
 4602              	# /usr/include/c++/7/bits/stl_heap.h:231: 	  *(__first + __holeIndex) = _GLIBCXX_MOVE(*(__first
 4604 019d 4889C2   		movq	%rax, %rdx	# tmp163, tmp166
 4605 01a0 48C1E104 		salq	$4, %rcx	#, __holeIndex
 4606 01a4 48C1E205 		salq	$5, %rdx	#, tmp166
 4607 01a8 C4C17A6F 		vmovdqu	-16(%r15,%rdx), %xmm0	# *_22, *_22
 4607      4417F0
 4608 01af 4C89E2   		movq	%r12, %rdx	# __holeIndex, tmp170
 4609 01b2 48C1E204 		salq	$4, %rdx	#, tmp170
 4610 01b6 C4C17811 		vmovups	%xmm0, (%r15,%rcx)	# *_22, *_25
 4610      040F
 4611 01bc 498D0C17 		leaq	(%r15,%rdx), %rcx	#, _8
 4612 01c0 E918FFFF 		jmp	.L290	#
 4612      FF
 4616              	.L309:
 4619              	# /usr/include/c++/7/bits/stl_heap.h:133:       while (__holeIndex > __topIndex && __comp(__first +
 4621 01c8 4C89E9   		movq	%r13, %rcx	# _55, _8
 4622 01cb EB97     		jmp	.L292	#
 4626              	.L285:
 4629              	# /usr/include/c++/7/bits/stl_heap.h:228:       if ((__len & 1) == 0 && __secondChild == (__len - 2
 4631 01d0 48837C24 		cmpq	$0, 40(%rsp)	#, %sfp
 4631      2800
 4632 01d6 4989F4   		movq	%rsi, %r12	# __holeIndex, __holeIndex
 4633 01d9 0F84D9FE 		je	.L294	#,
 4633      FFFF
 4635 01df 488B4424 		movq	32(%rsp), %rax	# %sfp, __value
 4635      20
 4637 01e4 49C1E404 		salq	$4, %r12	#, __holeIndex
 4638 01e8 48894C24 		movq	%rcx, 48(%rsp)	# __value, __value
 4638      30
 4639 01ed 4B8D0C27 		leaq	(%r15,%r12), %rcx	#, _8
 4641 01f1 48894424 		movq	%rax, 56(%rsp)	# __value, __value
 4641      38
 4643 01f6 E969FFFF 		jmp	.L292	#
 4643      FF
 4645              	.L311:
 4646              	# /usr/include/c++/7/bits/stl_heap.h:239:     }
 4648 01fb E8000000 		call	__stack_chk_fail@PLT	#
 4648      00
 4653              		.text
 4654      00662E0F 
 4654      1F840000 
 4654      000000
 4656              	_ZSt16__introsort_loopIP11SortableReflN9__gnu_cxx5__ops15_Iter_comp_iterIPFbRS0_S5_EEEEvT_S9_T0_T1_
 4662 0cc0 4157     		pushq	%r15	#
 4665 0cc2 4989D7   		movq	%rdx, %r15	# __depth_limit, __depth_limit
 4666              	# /usr/include/c++/7/bits/stl_algo.h:1944:       while (__last - __first > int(_S_threshold))
 4668 0cc5 4889F2   		movq	%rsi, %rdx	# __last, _5
 4670              	# /usr/include/c++/7/bits/stl_algo.h:1940:     __introsort_loop(_RandomAccessIterator __first,
 4672 0cc8 4156     		pushq	%r14	#
 4675              	# /usr/include/c++/7/bits/stl_algo.h:1944:       while (__last - __first > int(_S_threshold))
 4677 0cca 4829FA   		subq	%rdi, %rdx	# __first, _5
 4678              	# /usr/include/c++/7/bits/stl_algo.h:1940:     __introsort_loop(_RandomAccessIterator __first,
 4680 0ccd 4155     		pushq	%r13	#
 4683 0ccf 4154     		pushq	%r12	#
 4686 0cd1 55       		pushq	%rbp	#
 4689 0cd2 53       		pushq	%rbx	#
 4692 0cd3 4883EC08 		subq	$8, %rsp	#,
 4694              	# /usr/include/c++/7/bits/stl_algo.h:1944:       while (__last - __first > int(_S_threshold))
 4696 0cd7 4881FA00 		cmpq	$256, %rdx	#, _5
 4696      010000
 4697 0cde 0F8E7301 		jle	.L338	#,
 4697      0000
 4698 0ce4 4C8D6710 		leaq	16(%rdi), %r12	#, _33
 4699 0ce8 4989FE   		movq	%rdi, %r14	# __first, __first
 4700 0ceb 4889CD   		movq	%rcx, %rbp	# __comp, __comp
 4702              	# /usr/include/c++/7/bits/stl_algo.h:1946: 	  if (__depth_limit == 0)
 4704 0cee 4D85FF   		testq	%r15, %r15	# __depth_limit
 4705 0cf1 0F84C001 		je	.L342	#,
 4705      0000
 4707              	.L316:
 4710              	# /usr/include/c++/7/bits/stl_algo.h:1920:       _RandomAccessIterator __mid = __first + (__last - 
 4712 0cf7 48C1FA05 		sarq	$5, %rdx	#, tmp145
 4718              	# Measure.h:199:     return left < right;
 199:Measure.h     **** }
 4720 0cfb 498B4E10 		movq	16(%r14), %rcx	# MEM[(long unsigned int *)__first_3(D) + 16B], _92
 4728              	# /usr/include/c++/7/bits/stl_algo.h:1951: 	  --__depth_limit;
 4730 0cff 4983EF01 		subq	$1, %r15	#, __depth_limit
 4734              	# /usr/include/c++/7/bits/stl_algo.h:1920:       _RandomAccessIterator __mid = __first + (__last - 
 4736 0d03 48C1E204 		salq	$4, %rdx	#, tmp146
 4737 0d07 4C8B46F0 		movq	-16(%rsi), %r8	# MEM[(long unsigned int *)__last_109 + -16B], pretmp_161
 4738 0d0b 498D0416 		leaq	(%r14,%rdx), %rax	#, __mid
 4740 0d0f 498B3E   		movq	(%r14), %rdi	# MEM[(struct SortableRef &)__first_3(D)], prephitmp_147
 4746              	# Measure.h:199:     return left < right;
 199:Measure.h     **** }
 4748 0d12 488B10   		movq	(%rax), %rdx	# MEM[(long unsigned int *)__mid_54], _93
 4750 0d15 4D8B4E08 		movq	8(%r14), %r9	# MEM[(struct SortableRef &)__first_3(D) + 8], pretmp_186
 4754              	# /usr/include/c++/7/bits/stl_algo.h:81:       if (__comp(__a, __b))
 4756 0d19 4839D1   		cmpq	%rdx, %rcx	# _93, _92
 4757 0d1c 0F834E01 		jnb	.L320	#,
 4757      0000
 4759              	# /usr/include/c++/7/bits/stl_algo.h:83: 	  if (__comp(__b, __c))
 4761 0d22 4C39C2   		cmpq	%r8, %rdx	# pretmp_161, _93
 4762 0d25 0F825301 		jb	.L326	#,
 4762      0000
 4764              	# /usr/include/c++/7/bits/stl_algo.h:85: 	  else if (__comp(__a, __c))
 4766 0d2b 4C39C1   		cmpq	%r8, %rcx	# pretmp_161, _92
 4767 0d2e 0F826C01 		jb	.L340	#,
 4767      0000
 4769              	.L341:
 4773              	# /usr/include/c++/7/bits/move.h:199:       __a = _GLIBCXX_MOVE(__b);
 4775 0d34 C4C17A6F 		vmovdqu	16(%r14), %xmm0	# MEM[(struct SortableRef &)__first_3(D) + 16], MEM[(struct SortableRef &)
 4775      4610
 4776              	# /usr/include/c++/7/bits/move.h:200:       __b = _GLIBCXX_MOVE(__tmp);
 4778 0d3a 49897E10 		movq	%rdi, 16(%r14)	# prephitmp_147, MEM[(struct SortableRef *)__first_3(D) + 16B]
 4779 0d3e 4D894E18 		movq	%r9, 24(%r14)	# pretmp_186, MEM[(struct SortableRef *)__first_3(D) + 24B]
 4780              	# /usr/include/c++/7/bits/move.h:199:       __a = _GLIBCXX_MOVE(__b);
 4782 0d42 C4C17811 		vmovups	%xmm0, (%r14)	# MEM[(struct SortableRef &)__first_3(D) + 16], *__first_3(D)
 4782      06
 4784 0d47 488B7EF0 		movq	-16(%rsi), %rdi	# MEM[(long unsigned int *)__last_109 + -16B], prephitmp_147
 4786              	.L322:
 4787 0d4b 498B16   		movq	(%r14), %rdx	# MEM[(long unsigned int *)__first_3(D)], prephitmp_174
 4788 0d4e 4C89E3   		movq	%r12, %rbx	# _33, ivtmp.616
 4796              	# /usr/include/c++/7/bits/stl_algo.h:1946: 	  if (__depth_limit == 0)
 4798 0d51 4889F0   		movq	%rsi, %rax	# __last, __last
 4802              	.L324:
 4810              	# Measure.h:199:     return left < right;
 199:Measure.h     **** }
 4812 0d58 488B0B   		movq	(%rbx), %rcx	# MEM[base: __first_59, offset: 0B], _107
 4813 0d5b 4989DD   		movq	%rbx, %r13	# ivtmp.616, __first
 4818              	# /usr/include/c++/7/bits/stl_algo.h:1902: 	  while (__comp(__first, __pivot))
 4820 0d5e 4839D1   		cmpq	%rdx, %rcx	# prephitmp_174, _107
 4821 0d61 7235     		jb	.L327	#,
 4822 0d63 4883E810 		subq	$16, %rax	#, __last
 4824              	# /usr/include/c++/7/bits/stl_algo.h:1905: 	  while (__comp(__pivot, __last))
 4826 0d67 4839D7   		cmpq	%rdx, %rdi	# prephitmp_174, prephitmp_147
 4827 0d6a 760D     		jbe	.L328	#,
 4831              	.L329:
 4832              	# /usr/include/c++/7/bits/stl_algo.h:1906: 	    --__last;
 4834 0d70 4883E810 		subq	$16, %rax	#, __last
 4836              	# /usr/include/c++/7/bits/stl_algo.h:1905: 	  while (__comp(__pivot, __last))
 4838 0d74 483910   		cmpq	%rdx, (%rax)	# prephitmp_174, MEM[base: __last_66, offset: 0B]
 4839 0d77 77F7     		ja	.L329	#,
 4841              	.L328:
 4842              	# /usr/include/c++/7/bits/stl_algo.h:1907: 	  if (!(__first < __last))
 4844 0d79 4839C3   		cmpq	%rax, %rbx	# __last, ivtmp.616
 4845 0d7c 7322     		jnb	.L343	#,
 4850              	# /usr/include/c++/7/bits/move.h:198:       _Tp __tmp = _GLIBCXX_MOVE(__a);
 4852 0d7e 488B5308 		movq	8(%rbx), %rdx	# MEM[base: __first_59, offset: 8], __tmp$reference
 4854              	# /usr/include/c++/7/bits/move.h:199:       __a = _GLIBCXX_MOVE(__b);
 4856 0d82 C5FA6F00 		vmovdqu	(%rax), %xmm0	# *__last_158, *__last_158
 4857 0d86 C5F81103 		vmovups	%xmm0, (%rbx)	# *__last_158, MEM[base: __first_59, offset: 0B]
 4858 0d8a 488B78F0 		movq	-16(%rax), %rdi	# MEM[(long unsigned int *)__last_158 + -16B], prephitmp_147
 4859              	# /usr/include/c++/7/bits/move.h:200:       __b = _GLIBCXX_MOVE(__tmp);
 4861 0d8e 488908   		movq	%rcx, (%rax)	# _107, MEM[(struct SortableRef *)__last_158]
 4862 0d91 48895008 		movq	%rdx, 8(%rax)	# __tmp$reference, MEM[(struct SortableRef *)__last_158 + 8B]
 4864 0d95 498B16   		movq	(%r14), %rdx	# MEM[(long unsigned int *)__first_3(D)], prephitmp_174
 4866              	.L327:
 4867 0d98 4883C310 		addq	$16, %rbx	#, ivtmp.616
 4868 0d9c EBBA     		jmp	.L324	#
 4872              	.L343:
 4880              	# /usr/include/c++/7/bits/stl_algo.h:1954: 	  std::__introsort_loop(__cut, __last, __depth_limit, _
 4882 0da0 4C89FA   		movq	%r15, %rdx	# __depth_limit,
 4883 0da3 4889E9   		movq	%rbp, %rcx	# __comp,
 4884 0da6 4889DF   		movq	%rbx, %rdi	# ivtmp.616,
 4885 0da9 E812FFFF 		call	_ZSt16__introsort_loopIP11SortableReflN9__gnu_cxx5__ops15_Iter_comp_iterIPFbRS0_S5_EEEEvT_S9_
 4885      FF
 4888              	# /usr/include/c++/7/bits/stl_algo.h:1944:       while (__last - __first > int(_S_threshold))
 4890 0dae 4889DA   		movq	%rbx, %rdx	# ivtmp.616, _5
 4891 0db1 4C29F2   		subq	%r14, %rdx	# __first, _5
 4892 0db4 4881FA00 		cmpq	$256, %rdx	#, _5
 4892      010000
 4893 0dbb 0F8E9600 		jle	.L338	#,
 4893      0000
 4894 0dc1 4889DE   		movq	%rbx, %rsi	# ivtmp.616, __last
 4896              	# /usr/include/c++/7/bits/stl_algo.h:1946: 	  if (__depth_limit == 0)
 4898 0dc4 4D85FF   		testq	%r15, %r15	# __depth_limit
 4899 0dc7 0F852AFF 		jne	.L316	#,
 4899      FFFF
 4901              	.L314:
 4906              	# /usr/include/c++/7/bits/stl_heap.h:337:       const _DistanceType __len = __last - __first;
 4908 0dcd 4889D3   		movq	%rdx, %rbx	# _5, _5
 4909 0dd0 48C1FB04 		sarq	$4, %rbx	#, _5
 4911              	# /usr/include/c++/7/bits/stl_heap.h:338:       _DistanceType __parent = (__len - 2) / 2;
 4913 0dd4 4C8D7BFE 		leaq	-2(%rbx), %r15	#, tmp129
 4915 0dd8 49D1FF   		sarq	%r15	# __parent
 4917 0ddb 4D89FC   		movq	%r15, %r12	# __parent, tmp130
 4918 0dde 49C1E404 		salq	$4, %r12	#, tmp130
 4919 0de2 4D01F4   		addq	%r14, %r12	# __first, ivtmp.605
 4920 0de5 EB0D     		jmp	.L318	#
 4922      00000000 
 4922      00
 4924              	.L344:
 4926              	# /usr/include/c++/7/bits/stl_heap.h:346: 	  __parent--;
 4928 0df0 4983EF01 		subq	$1, %r15	#, __parent
 4930              	.L318:
 4931              	# /usr/include/c++/7/bits/stl_heap.h:341: 	  _ValueType __value = _GLIBCXX_MOVE(*(__first + __paren
 4933 0df4 498B0C24 		movq	(%r12), %rcx	# MEM[base: _13, offset: 0], __value
 4935              	# /usr/include/c++/7/bits/stl_heap.h:342: 	  std::__adjust_heap(__first, __parent, __len, _GLIBCXX_
 4937 0df8 4989E9   		movq	%rbp, %r9	# __comp,
 4938 0dfb 4889DA   		movq	%rbx, %rdx	# tmp128,
 4939 0dfe 4C89FE   		movq	%r15, %rsi	# __parent,
 4940 0e01 4D8B4424 		movq	8(%r12), %r8	# MEM[base: _13, offset: 0], tmp157
 4940      08
 4941 0e06 4C89F7   		movq	%r14, %rdi	# __first,
 4942 0e09 4983EC10 		subq	$16, %r12	#, ivtmp.605
 4943 0e0d E8000000 		call	_ZSt13__adjust_heapIP11SortableReflS0_N9__gnu_cxx5__ops15_Iter_comp_iterIPFbRS0_S5_EEEEvT_T0_
 4943      00
 4945              	# /usr/include/c++/7/bits/stl_heap.h:344: 	  if (__parent == 0)
 4947 0e12 4D85FF   		testq	%r15, %r15	# __parent
 4948 0e15 75D9     		jne	.L344	#,
 4950      00000000 
 4950      00
 4952              	.L319:
 4959              	# /usr/include/c++/7/bits/stl_heap.h:407: 	  --__last;
 4961 0e20 4983ED10 		subq	$16, %r13	#, __first
 4965              	# /usr/include/c++/7/bits/stl_heap.h:251:       _ValueType __value = _GLIBCXX_MOVE(*__result);
 4967 0e24 498B4D00 		movq	0(%r13), %rcx	# MEM[base: __last_24, offset: 0], __value
 4969              	# /usr/include/c++/7/bits/stl_heap.h:253:       std::__adjust_heap(__first, _DistanceType(0),
 4971 0e28 31F6     		xorl	%esi, %esi	#
 4972 0e2a 4989E9   		movq	%rbp, %r9	# __comp,
 4973              	# /usr/include/c++/7/bits/stl_heap.h:251:       _ValueType __value = _GLIBCXX_MOVE(*__result);
 4975 0e2d 4D8B4508 		movq	8(%r13), %r8	# MEM[base: __last_24, offset: 0], __value
 4976              	# /usr/include/c++/7/bits/stl_heap.h:254: 			 _DistanceType(__last - __first),
 4978 0e31 4C89EB   		movq	%r13, %rbx	# __first, _26
 4979              	# /usr/include/c++/7/bits/stl_heap.h:253:       std::__adjust_heap(__first, _DistanceType(0),
 4981 0e34 4C89F7   		movq	%r14, %rdi	# __first,
 4982              	# /usr/include/c++/7/bits/stl_heap.h:254: 			 _DistanceType(__last - __first),
 4984 0e37 4C29F3   		subq	%r14, %rbx	# __first, _26
 4985              	# /usr/include/c++/7/bits/stl_heap.h:252:       *__result = _GLIBCXX_MOVE(*__first);
 4987 0e3a C4C17A6F 		vmovdqu	(%r14), %xmm0	# *__first_3(D), *__first_3(D)
 4987      06
 4988              	# /usr/include/c++/7/bits/stl_heap.h:254: 			 _DistanceType(__last - __first),
 4990 0e3f 4889DA   		movq	%rbx, %rdx	# _26, tmp141
 4991 0e42 48C1FA04 		sarq	$4, %rdx	#, tmp141
 4992              	# /usr/include/c++/7/bits/stl_heap.h:252:       *__result = _GLIBCXX_MOVE(*__first);
 4994 0e46 C4C17811 		vmovups	%xmm0, 0(%r13)	# *__first_3(D), MEM[base: __last_24, offset: 0B]
 4994      4500
 4995              	# /usr/include/c++/7/bits/stl_heap.h:253:       std::__adjust_heap(__first, _DistanceType(0),
 4997 0e4c E8000000 		call	_ZSt13__adjust_heapIP11SortableReflS0_N9__gnu_cxx5__ops15_Iter_comp_iterIPFbRS0_S5_EEEEvT_T0_
 4997      00
 5001              	# /usr/include/c++/7/bits/stl_heap.h:405:       while (__last - __first > 1)
 5003 0e51 4883FB10 		cmpq	$16, %rbx	#, _26
 5004 0e55 7FC9     		jg	.L319	#,
 5006              	.L338:
 5011              	# /usr/include/c++/7/bits/stl_algo.h:1957:     }
 5013 0e57 4883C408 		addq	$8, %rsp	#,
 5016 0e5b 5B       		popq	%rbx	#
 5018 0e5c 5D       		popq	%rbp	#
 5021 0e5d 415C     		popq	%r12	#
 5023 0e5f 415D     		popq	%r13	#
 5025 0e61 415E     		popq	%r14	#
 5027 0e63 415F     		popq	%r15	#
 5029 0e65 C3       		ret
 5031      84000000 
 5031      0000
 5033              	.L320:
 5040              	# /usr/include/c++/7/bits/stl_algo.h:90:       else if (__comp(__a, __c))
 5042 0e70 4C39C1   		cmpq	%r8, %rcx	# pretmp_161, _92
 5043 0e73 0F82BBFE 		jb	.L341	#,
 5043      FFFF
 5045              	# /usr/include/c++/7/bits/stl_algo.h:92:       else if (__comp(__b, __c))
 5047 0e79 4C39C2   		cmpq	%r8, %rdx	# pretmp_161, _93
 5048 0e7c 7222     		jb	.L340	#,
 5050              	.L326:
 5054              	# /usr/include/c++/7/bits/move.h:199:       __a = _GLIBCXX_MOVE(__b);
 5056 0e7e C5FA6F00 		vmovdqu	(%rax), %xmm0	# *__mid_54, *__mid_54
 5057 0e82 C4C17811 		vmovups	%xmm0, (%r14)	# *__mid_54, *__first_3(D)
 5057      06
 5059              	# /usr/include/c++/7/bits/move.h:200:       __b = _GLIBCXX_MOVE(__tmp);
 5061 0e87 488938   		movq	%rdi, (%rax)	# prephitmp_147, MEM[(struct SortableRef *)__mid_54]
 5062 0e8a 4C894808 		movq	%r9, 8(%rax)	# pretmp_186, MEM[(struct SortableRef *)__mid_54 + 8B]
 5064 0e8e 488B7EF0 		movq	-16(%rsi), %rdi	# MEM[(long unsigned int *)__last_109 + -16B], prephitmp_147
 5065 0e92 E9B4FEFF 		jmp	.L322	#
 5065      FF
 5067      00000000 
 5067      00
 5069              	.L340:
 5076              	# /usr/include/c++/7/bits/move.h:199:       __a = _GLIBCXX_MOVE(__b);
 5078 0ea0 C5FA6F46 		vmovdqu	-16(%rsi), %xmm0	# MEM[(struct SortableRef &)__last_109 + 18446744073709551600], MEM[(stru
 5078      F0
 5079 0ea5 C4C17811 		vmovups	%xmm0, (%r14)	# MEM[(struct SortableRef &)__last_109 + 18446744073709551600], *__first_3(D
 5079      06
 5081              	# /usr/include/c++/7/bits/move.h:200:       __b = _GLIBCXX_MOVE(__tmp);
 5083 0eaa 48897EF0 		movq	%rdi, -16(%rsi)	# prephitmp_147, MEM[(struct SortableRef *)__last_109 + -16B]
 5084 0eae 4C894EF8 		movq	%r9, -8(%rsi)	# pretmp_186, MEM[(struct SortableRef *)__last_109 + -8B]
 5086 0eb2 E994FEFF 		jmp	.L322	#
 5086      FF
 5088              	.L342:
 5096              	# /usr/include/c++/7/bits/stl_algo.h:1946: 	  if (__depth_limit == 0)
 5098 0eb7 4989F5   		movq	%rsi, %r13	# __last, __first
 5099 0eba E90EFFFF 		jmp	.L314	#
 5099      FF
 5104              		.section	.rodata.str1.1
 5105              	.LC7:
 5106 0026 436F7272 		.string	"Correct sort qs copy"
 5106      65637420 
 5106      736F7274 
 5106      20717320 
 5106      636F7079 
 5107              	.LC8:
 5108 003b 57726F6E 		.string	"Wrong sort qs copy"
 5108      6720736F 
 5108      72742071 
 5108      7320636F 
 5108      707900
 5109              	.LC9:
 5110 004e 57726F6E 		.string	"Wrong sort std sort"
 5110      6720736F 
 5110      72742073 
 5110      74642073 
 5110      6F727400 
 5111              	.LC10:
 5112 0062 436F7272 		.string	"Correct sort std sort"
 5112      65637420 
 5112      736F7274 
 5112      20737464 
 5112      20736F72 
 5113              		.text
 5115              		.globl	_Z4Testv
 5117              	_Z4Testv:
   1:test.cc       **** 
   2:test.cc       **** #include <iostream>
   3:test.cc       **** 
   4:test.cc       **** #include "Sortable.generated.h"
   5:test.cc       **** #include "BestNetworks.generated.h"
   6:test.cc       **** #include "BoseNelson.generated.h"
   7:test.cc       **** #include "BoseNelsonParallel.generated.h"
   8:test.cc       **** #include "BoseNelsonParameter.generated.h"
   9:test.cc       **** #include "NetworkSort.h"
  10:test.cc       **** #include "Randomisation.generated.h"
  11:test.cc       **** #include "Quicksort_Copy.h"
  12:test.cc       **** #include "Measure.h"
  13:test.cc       **** #include "DebugHelper.h"
  14:test.cc       **** 
  15:test.cc       **** 
  16:test.cc       **** 
  17:test.cc       **** void Test()
  18:test.cc       **** {
 5123 0ec0 4157     		pushq	%r15	#
 5126              	# test.cc:20:     SortableRef* arr = (SortableRef*) malloc(sizeof(SortableRef) * arraySize);
  19:test.cc       ****     int arraySize = 1024 * 16;
  20:test.cc       ****     SortableRef* arr = (SortableRef*) malloc(sizeof(SortableRef) * arraySize);
 5128 0ec2 BF000004 		movl	$262144, %edi	#,
 5128      00
 5129              	# test.cc:18: {
  18:test.cc       ****     int arraySize = 1024 * 16;
 5131 0ec7 4156     		pushq	%r14	#
 5134 0ec9 4155     		pushq	%r13	#
 5137 0ecb 4154     		pushq	%r12	#
 5140 0ecd 55       		pushq	%rbp	#
 5143 0ece 53       		pushq	%rbx	#
 5146 0ecf 4883EC28 		subq	$40, %rsp	#,
 5148              	# test.cc:20:     SortableRef* arr = (SortableRef*) malloc(sizeof(SortableRef) * arraySize);
 5150 0ed3 E8000000 		call	malloc@PLT	#
 5150      00
 5156              	# Randomisation.h:20:     _seed = _seed * 48271 % 2147483647;
  20:Randomisation.h ****     return _seed;
 5158 0ed8 49B80500 		movabsq	$8589934597, %r8	#, tmp182
 5158      00000200 
 5158      0000
 5159 0ee2 48690D00 		imulq	$48271, _ZN13randomisation5_seedE(%rip), %rcx	#, _seed, tmp179
 5159      0000008F 
 5159      BC0000
 5164              	# test.cc:20:     SortableRef* arr = (SortableRef*) malloc(sizeof(SortableRef) * arraySize);
 5166 0eed 4889C5   		movq	%rax, %rbp	#, arr
 5168 0ef0 488D5D08 		leaq	8(%rbp), %rbx	#, ivtmp.700
 5173              	# Randomisation.h:20:     _seed = _seed * 48271 % 2147483647;
  20:Randomisation.h ****     return _seed;
 5175 0ef4 4889DE   		movq	%rbx, %rsi	# ivtmp.700, ivtmp.757
 5176 0ef7 4889C8   		movq	%rcx, %rax	# tmp179, tmp253
 5177 0efa 49F7E0   		mulq	%r8	# tmp182
 5178 0efd 4889C8   		movq	%rcx, %rax	# tmp179, tmp183
 5179 0f00 4829D0   		subq	%rdx, %rax	# tmp181, tmp183
 5180 0f03 48D1E8   		shrq	%rax	# tmp184
 5181 0f06 4801C2   		addq	%rax, %rdx	# tmp184, tmp185
 5182 0f09 48C1EA1E 		shrq	$30, %rdx	#, _seed_lsm.640
 5183 0f0d 4889D0   		movq	%rdx, %rax	# _seed_lsm.640, tmp187
 5184 0f10 48C1E01F 		salq	$31, %rax	#, tmp187
 5185 0f14 4829D0   		subq	%rdx, %rax	# _seed_lsm.640, tmp188
 5186 0f17 4829C1   		subq	%rax, %rcx	# tmp188, tmp179
 5187 0f1a 4C8D8900 		leaq	16384(%rcx), %r9	#, _130
 5187      400000
 5188 0f21 4889CA   		movq	%rcx, %rdx	# tmp179, _seed_lsm.640
 5192              	.L346:
 5198 0f28 4869FA8F 		imulq	$48271, %rdx, %rdi	#, _seed_lsm.640, tmp189
 5198      BC0000
 5201              	# Randomisation.generated.h:28: 		arr[i].reference = reference + i;
  28:Randomisation.generated.h **** 	}
 5203 0f2f 48890E   		movq	%rcx, (%rsi)	# ivtmp.756, MEM[base: _138, offset: 0B]
 5204 0f32 4883C101 		addq	$1, %rcx	#, ivtmp.756
 5206 0f36 4883C610 		addq	$16, %rsi	#, ivtmp.757
 5209              	# Randomisation.h:20:     _seed = _seed * 48271 % 2147483647;
  20:Randomisation.h ****     return _seed;
 5211 0f3a 4889F8   		movq	%rdi, %rax	# tmp189, tmp254
 5212 0f3d 49F7E0   		mulq	%r8	# tmp191
 5213 0f40 4889F8   		movq	%rdi, %rax	# tmp189, tmp192
 5214 0f43 4829D0   		subq	%rdx, %rax	# tmp190, tmp192
 5215 0f46 48D1E8   		shrq	%rax	# tmp193
 5216 0f49 4801C2   		addq	%rax, %rdx	# tmp193, tmp194
 5217 0f4c 48C1EA1E 		shrq	$30, %rdx	#, _seed_lsm.640
 5218 0f50 4889D0   		movq	%rdx, %rax	# _seed_lsm.640, tmp196
 5219 0f53 48C1E01F 		salq	$31, %rax	#, tmp196
 5220 0f57 4829D0   		subq	%rdx, %rax	# _seed_lsm.640, tmp197
 5221 0f5a 4829C7   		subq	%rax, %rdi	# tmp197, tmp189
 5224              	# Randomisation.generated.h:27: 		arr[i].key = randomisation::GenerateRandomUint64();
  27:Randomisation.generated.h **** 		arr[i].reference = reference + i;
 5226 0f5d 48897EE8 		movq	%rdi, -24(%rsi)	# _seed_lsm.640, MEM[base: _138, offset: -8B]
 5229              	# Randomisation.h:20:     _seed = _seed * 48271 % 2147483647;
  20:Randomisation.h ****     return _seed;
 5231 0f61 4889FA   		movq	%rdi, %rdx	# tmp189, _seed_lsm.640
 5234              	# Randomisation.generated.h:25: 	for (int i = 0; i < arraySize; i += 1)
  25:Randomisation.generated.h **** 	{
 5236 0f64 4939C9   		cmpq	%rcx, %r9	# ivtmp.756, _130
 5237 0f67 75BF     		jne	.L346	#,
 5241              	# test.cc:22:     quicksortcopy::Quicksort_Copy_Stl(arr, arr + arraySize, &measurement::IteratorCom
  21:test.cc       ****     randomisation::GenerateRandomArray(arr, arraySize);
  22:test.cc       ****     quicksortcopy::Quicksort_Copy_Stl(arr, arr + arraySize, &measurement::IteratorCompare<SortableR
 5243 0f69 4C8DBD00 		leaq	262144(%rbp), %r15	#, _235
 5243      000400
 5249              	# CustomMath.h:14:         );
   1:CustomMath.h  **** 
   2:CustomMath.h  **** #ifndef CUSTOM_MATH_H
   3:CustomMath.h  **** #define CUSTOM_MATH_H
   4:CustomMath.h  **** 
   5:CustomMath.h  **** namespace custommath
   6:CustomMath.h  **** {
   7:CustomMath.h  ****     static int intlog2(const int x)
   8:CustomMath.h  ****     {
   9:CustomMath.h  ****         int y;
  10:CustomMath.h  ****         __asm__(
  11:CustomMath.h  ****             "bsr %[in],%[out]\n\t"
  12:CustomMath.h  ****             : [out] "=r"(y)
  13:CustomMath.h  ****             : [in] "r"(x) 
  14:CustomMath.h  ****         );
 5252 0f70 BA004000 		movl	$16384, %edx	#, tmp207
 5252      00
 5253 0f75 48893D00 		movq	%rdi, _ZN13randomisation5_seedE(%rip)	# _seed_lsm.640, _seed
 5253      000000
 5257              	# Quicksort_Copy.h:273:         introsort_loop(first, last, (int64_t) custommath::intlog2((int) (la
 267:Quicksort_Copy.h **** 
 268:Quicksort_Copy.h **** template <typename TValueType, typename TCompare>
 269:Quicksort_Copy.h **** void Quicksort_Copy_Stl(TValueType* first, TValueType* last, TCompare compare)
 270:Quicksort_Copy.h **** {
 271:Quicksort_Copy.h ****     if (first != last)
 272:Quicksort_Copy.h **** 	{
 273:Quicksort_Copy.h ****         introsort_loop(first, last, (int64_t) custommath::intlog2((int) (last - first)) * 2, compar
 5259 0f7c 4889EF   		movq	%rbp, %rdi	# arr,
 5262              	# CustomMath.h:14:         );
 5265              	# 14 "CustomMath.h" 1
  15              	        return y;
  16              	    }
 5266              		bsr %edx,%edx	# tmp207, y
 5267              		
 5268              	# 0 "" 2
 5276              	# Quicksort_Copy.h:175:         insertion_sort(first, first + S_threshold, compare);
 175:Quicksort_Copy.h ****         unguarded_insertion_sort(first + S_threshold, last, compare);
 5278 0f82 4C8DA500 		leaq	256(%rbp), %r12	#, _87
 5278      010000
 5282              	# Quicksort_Copy.h:273:         introsort_loop(first, last, (int64_t) custommath::intlog2((int) (la
 5284 0f89 4863D2   		movslq	%edx, %rdx	# y, y
 5285 0f8c 4C89FE   		movq	%r15, %rsi	# _235,
 5286 0f8f 4801D2   		addq	%rdx, %rdx	# tmp209
 5287 0f92 E859FBFF 		call	_ZN13quicksortcopy14introsort_loopI11SortableReflPFbPS1_S2_EEEvPT_S6_T0_T1_.constprop.61	#
 5287      FF
 5294              	# Quicksort_Copy.h:154:     for (TValueType* i = first + 1; i != last; ++i)
 154:Quicksort_Copy.h ****     {
 5296 0f97 488D4510 		leaq	16(%rbp), %rax	#, tmp250
 5297 0f9b 4989C6   		movq	%rax, %r14	# tmp250, tmp250
 5298 0f9e 48894424 		movq	%rax, 8(%rsp)	# tmp250, %sfp
 5298      08
 5299 0fa3 4989C5   		movq	%rax, %r13	# tmp250, __i
 5301 0fa6 EB45     		jmp	.L353	#
 5303      00000000 
 5305              	.L393:
 5314              	# /usr/include/c++/7/bits/stl_algobase.h:569: 	  if (_Num)
 5317 0fb0 4939EE   		cmpq	%rbp, %r14	# arr, i
 5318 0fb3 7427     		je	.L348	#,
 5319              	# /usr/include/c++/7/bits/stl_algobase.h:570: 	    __builtin_memmove(__result - _Num, __first, size
 5321 0fb5 488B7C24 		movq	8(%rsp), %rdi	# %sfp, tmp213
 5321      08
 5322 0fba 4C89F2   		movq	%r14, %rdx	# i, tmp210
 5323 0fbd 4889EE   		movq	%rbp, %rsi	# arr,
 5324 0fc0 4C894C24 		movq	%r9, 24(%rsp)	# pretmp_120, %sfp
 5324      18
 5325 0fc5 4829EA   		subq	%rbp, %rdx	# arr, tmp210
 5326 0fc8 48894C24 		movq	%rcx, 16(%rsp)	# _115, %sfp
 5326      10
 5327 0fcd E8000000 		call	memmove@PLT	#
 5327      00
 5329 0fd2 4C8B4C24 		movq	24(%rsp), %r9	# %sfp, pretmp_120
 5329      18
 5330 0fd7 488B4C24 		movq	16(%rsp), %rcx	# %sfp, _115
 5330      10
 5332              	.L348:
 5341              	# Quicksort_Copy.h:154:     for (TValueType* i = first + 1; i != last; ++i)
 154:Quicksort_Copy.h ****     {
 5343 0fdc 4983C610 		addq	$16, %r14	#, i
 5347              	# Quicksort_Copy.h:160:             *first = std::move(val);
 160:Quicksort_Copy.h ****         }
 5349 0fe0 48894D00 		movq	%rcx, 0(%rbp)	# _115, MEM[(struct SortableRef *)arr_6]
 5350 0fe4 4C894D08 		movq	%r9, 8(%rbp)	# pretmp_120, MEM[(struct SortableRef *)arr_6 + 8B]
 5354              	# Quicksort_Copy.h:154:     for (TValueType* i = first + 1; i != last; ++i)
 154:Quicksort_Copy.h ****     {
 5356 0fe8 4D39F4   		cmpq	%r14, %r12	# i, _87
 5357 0feb 7453     		je	.L352	#,
 5359              	.L353:
 5363              	# Measure.h:193:     return *left < *right;
 193:Measure.h     **** }
 5365 0fed 498B0E   		movq	(%r14), %rcx	# MEM[base: i_215, offset: 0B], _115
 5367 0ff0 4D8B4E08 		movq	8(%r14), %r9	# MEM[base: i_215, offset: 8], pretmp_120
 5370              	# Quicksort_Copy.h:156:         if (compare(i, first))
 156:Quicksort_Copy.h ****         {
 5372 0ff4 483B4D00 		cmpq	0(%rbp), %rcx	# MEM[(long unsigned int *)arr_6], _115
 5373 0ff8 72B6     		jb	.L393	#,
 5375 0ffa 498D46F0 		leaq	-16(%r14), %rax	#, last
 5379              	# Quicksort_Copy.h:128:     while (compare(&val, next))
 128:Quicksort_Copy.h ****     {
 5381 0ffe 493B4EF0 		cmpq	-16(%r14), %rcx	# MEM[base: i_215, offset: -16B], _115
 5382 1002 720F     		jb	.L351	#,
 5383 1004 E9C80200 		jmp	.L394	#
 5383      00
 5385      000000
 5387              	.L378:
 5388 1010 4889D0   		movq	%rdx, %rax	# next, last
 5390              	.L351:
 5391              	# Quicksort_Copy.h:130:         *last = std::move(*next);
 130:Quicksort_Copy.h ****         last = next;
 5393 1013 C5FA6F00 		vmovdqu	(%rax), %xmm0	# MEM[base: next_217, offset: 0], MEM[base: next_217, offset: 0]
 5394              	# Quicksort_Copy.h:132:         --next;
 132:Quicksort_Copy.h ****     }
 5396 1017 488D50F0 		leaq	-16(%rax), %rdx	#, next
 5397              	# Quicksort_Copy.h:130:         *last = std::move(*next);
 130:Quicksort_Copy.h ****         last = next;
 5399 101b C5F81140 		vmovups	%xmm0, 16(%rax)	# MEM[base: next_217, offset: 0], MEM[base: next_217, offset: 16B]
 5399      10
 5401              	# Quicksort_Copy.h:128:     while (compare(&val, next))
 128:Quicksort_Copy.h ****     {
 5403 1020 483B48F0 		cmpq	-16(%rax), %rcx	# MEM[base: next_112, offset: 0B], _115
 5404 1024 72EA     		jb	.L378	#,
 5405              	# Quicksort_Copy.h:134:     *last = std::move(val);
 134:Quicksort_Copy.h **** }
 5407 1026 488908   		movq	%rcx, (%rax)	# _115, MEM[(struct SortableRef *)last_225]
 5408 1029 4C894808 		movq	%r9, 8(%rax)	# pretmp_120, MEM[(struct SortableRef *)last_225 + 8B]
 5410              	.L405:
 5414              	# Quicksort_Copy.h:154:     for (TValueType* i = first + 1; i != last; ++i)
 154:Quicksort_Copy.h ****     {
 5416 102d 4983C610 		addq	$16, %r14	#, i
 5418 1031 4D39F4   		cmpq	%r14, %r12	# i, _87
 5419 1034 75B7     		jne	.L353	#,
 5421      84000000 
 5421      0000
 5423              	.L352:
 5430              	# Quicksort_Copy.h:125:     TValueType val = std::move(*last);
 125:Quicksort_Copy.h ****     TValueType* next = last;
 5432 1040 498B0E   		movq	(%r14), %rcx	# MEM[base: i_208, offset: 0], val
 5434 1043 498D46F0 		leaq	-16(%r14), %rax	#, last
 5435 1047 498B7608 		movq	8(%r14), %rsi	# MEM[base: i_208, offset: 8], val$reference
 5437              	# Quicksort_Copy.h:128:     while (compare(&val, next))
 128:Quicksort_Copy.h ****     {
 5439 104b 49394EF0 		cmpq	%rcx, -16(%r14)	# val, MEM[base: i_208, offset: -16B]
 5440 104f 7712     		ja	.L357	#,
 5441 1051 E9430200 		jmp	.L395	#
 5441      00
 5443      84000000 
 5443      0000
 5445              	.L380:
 5446 1060 4889D0   		movq	%rdx, %rax	# next, last
 5448              	.L357:
 5449              	# Quicksort_Copy.h:130:         *last = std::move(*next);
 130:Quicksort_Copy.h ****         last = next;
 5451 1063 C5FA6F00 		vmovdqu	(%rax), %xmm0	# MEM[base: next_209, offset: 0], MEM[base: next_209, offset: 0]
 5452              	# Quicksort_Copy.h:132:         --next;
 132:Quicksort_Copy.h ****     }
 5454 1067 488D50F0 		leaq	-16(%rax), %rdx	#, next
 5455              	# Quicksort_Copy.h:130:         *last = std::move(*next);
 130:Quicksort_Copy.h ****         last = next;
 5457 106b C5F81140 		vmovups	%xmm0, 16(%rax)	# MEM[base: next_209, offset: 0], MEM[base: next_209, offset: 16B]
 5457      10
 5459              	# Quicksort_Copy.h:128:     while (compare(&val, next))
 128:Quicksort_Copy.h ****     {
 5461 1070 483948F0 		cmpq	%rcx, -16(%rax)	# val, MEM[base: next_93, offset: 0B]
 5462 1074 77EA     		ja	.L380	#,
 5465              	# Quicksort_Copy.h:140:     for (TValueType* i = first; i != last; ++i)
 140:Quicksort_Copy.h ****     {
 5467 1076 4983C610 		addq	$16, %r14	#, i
 5471              	# Quicksort_Copy.h:134:     *last = std::move(val);
 134:Quicksort_Copy.h **** }
 5473 107a 488908   		movq	%rcx, (%rax)	# val, MEM[(struct SortableRef *)last_247]
 5474 107d 48897008 		movq	%rsi, 8(%rax)	# val$reference, MEM[(struct SortableRef *)last_247 + 8B]
 5478              	# Quicksort_Copy.h:140:     for (TValueType* i = first; i != last; ++i)
 140:Quicksort_Copy.h ****     {
 5480 1081 4D39F7   		cmpq	%r14, %r15	# i, _235
 5481 1084 75BA     		jne	.L352	#,
 5483              	.L403:
 5494              	# ArrayHelpers.h:61:         if (__builtin_expect(items[i] > items[i + 1], 0)) 
   1:ArrayHelpers.h **** 
   2:ArrayHelpers.h **** #ifndef ARRAY_HELPERS_H
   3:ArrayHelpers.h **** #define ARRAY_HELPERS_H
   4:ArrayHelpers.h **** 
   5:ArrayHelpers.h **** #include <iostream>
   6:ArrayHelpers.h **** #include <string>
   7:ArrayHelpers.h **** #include <vector>
   8:ArrayHelpers.h **** #include "Sortable.generated.h"
   9:ArrayHelpers.h **** #include "StructHelpers.generated.h"
  10:ArrayHelpers.h **** #include "DebugHelper.h"
  11:ArrayHelpers.h **** 
  12:ArrayHelpers.h **** template<typename TValueType>
  13:ArrayHelpers.h **** void PrintArray(TValueType* source, int arraySize, std::string comment, uint64_t(*getKeyFunc)(TValu
  14:ArrayHelpers.h **** {
  15:ArrayHelpers.h ****     if (getKeyFunc == nullptr)
  16:ArrayHelpers.h ****     {
  17:ArrayHelpers.h ****         getKeyFunc = &GetKey<TValueType>;
  18:ArrayHelpers.h ****     }
  19:ArrayHelpers.h ****     printf("%s: ", comment.c_str());
  20:ArrayHelpers.h ****     for (int i = 0; i < arraySize; i += 1)
  21:ArrayHelpers.h ****     {
  22:ArrayHelpers.h ****         printf("%" PRIu64 ", ", getKeyFunc(source[i]));
  23:ArrayHelpers.h ****     }
  24:ArrayHelpers.h ****     printf("\n");
  25:ArrayHelpers.h **** }
  26:ArrayHelpers.h **** 
  27:ArrayHelpers.h **** template <typename TValueType>
  28:ArrayHelpers.h **** void PrintVector(std::vector<TValueType> source, std::string comment)
  29:ArrayHelpers.h **** {
  30:ArrayHelpers.h ****     printf("%s: ", comment.c_str());
  31:ArrayHelpers.h ****     for (TValueType ele : source)
  32:ArrayHelpers.h ****     {
  33:ArrayHelpers.h ****         printf("%" PRIu64 ", ", GetKey(ele));
  34:ArrayHelpers.h ****     }
  35:ArrayHelpers.h ****     printf("\n");
  36:ArrayHelpers.h **** }
  37:ArrayHelpers.h **** 
  38:ArrayHelpers.h **** template <typename TValueType>
  39:ArrayHelpers.h **** void CopyArray(TValueType* source, std::vector<TValueType>& destination, int arraySize) 
  40:ArrayHelpers.h **** {
  41:ArrayHelpers.h ****     for (int i = 0; i < arraySize; i += 1) 
  42:ArrayHelpers.h ****     {
  43:ArrayHelpers.h ****         destination.push_back(source[i]);
  44:ArrayHelpers.h ****     }
  45:ArrayHelpers.h **** }
  46:ArrayHelpers.h **** 
  47:ArrayHelpers.h **** template <typename TValueType>
  48:ArrayHelpers.h **** void CopyArray(TValueType* source, TValueType* destination, size_t arraySize)
  49:ArrayHelpers.h **** {
  50:ArrayHelpers.h ****     for (int i = 0; i < arraySize; i += 1) 
  51:ArrayHelpers.h ****     {
  52:ArrayHelpers.h ****         destination[i] = source[i];
  53:ArrayHelpers.h ****     }
  54:ArrayHelpers.h **** }
  55:ArrayHelpers.h **** 
  56:ArrayHelpers.h **** template <typename TComparable>
  57:ArrayHelpers.h **** bool IsSorted(TComparable* items, size_t arraySize) 
  58:ArrayHelpers.h **** {
  59:ArrayHelpers.h ****     for (int i = 0; i < arraySize - 1; i += 1) 
  60:ArrayHelpers.h ****     {
  61:ArrayHelpers.h ****         if (__builtin_expect(items[i] > items[i + 1], 0)) 
 5497 1086 488B4D10 		movq	16(%rbp), %rcx	# MEM[(long unsigned int *)arr_6 + 16B], D__lsm0.643
 5499 108a 488D4520 		leaq	32(%rbp), %rax	#, ivtmp.711
 5500 108e 48394D00 		cmpq	%rcx, 0(%rbp)	# D__lsm0.643, MEM[(long unsigned int *)arr_6]
 5501 1092 761C     		jbe	.L360	#,
 5502 1094 EB22     		jmp	.L354	#
 5504      84000000 
 5504      0000
 5506              	.L397:
 5507 10a0 4883C010 		addq	$16, %rax	#, ivtmp.711
 5508 10a4 4889D1   		movq	%rdx, %rcx	# _19, D__lsm0.643
 5509              	# ArrayHelpers.h:59:     for (int i = 0; i < arraySize - 1; i += 1) 
  59:ArrayHelpers.h ****     {
 5511 10a7 4939C7   		cmpq	%rax, %r15	# ivtmp.711, _235
 5512 10aa 0F84D801 		je	.L396	#,
 5512      0000
 5513              	.L360:
 5515              	# ArrayHelpers.h:61:         if (__builtin_expect(items[i] > items[i + 1], 0)) 
 5517 10b0 488B10   		movq	(%rax), %rdx	# MEM[base: _132, offset: 0B], _19
 5519 10b3 4839CA   		cmpq	%rcx, %rdx	# D__lsm0.643, _19
 5520 10b6 73E8     		jnb	.L397	#,
 5522              	.L354:
 5525              	# test.cc:25:         debug::WriteLine("Wrong sort qs copy");
  23:test.cc       ****     if (!IsSorted(arr, arraySize))
  24:test.cc       ****     {
  25:test.cc       ****         debug::WriteLine("Wrong sort qs copy");
 5527 10b8 488D3D00 		leaq	.LC8(%rip), %rdi	#,
 5527      000000
 5528 10bf E8000000 		call	_ZN5debug9WriteLineIJPKcEEEvDpT_	#
 5528      00
 5530              	.L376:
 5535              	# Randomisation.h:20:     _seed = _seed * 48271 % 2147483647;
  20:Randomisation.h ****     return _seed;
 5537 10c4 48690D00 		imulq	$48271, _ZN13randomisation5_seedE(%rip), %rcx	#, _seed, tmp216
 5537      0000008F 
 5537      BC0000
 5538 10cf 48BF0500 		movabsq	$8589934597, %rdi	#, tmp219
 5538      00000200 
 5538      0000
 5539 10d9 4889C8   		movq	%rcx, %rax	# tmp216, tmp255
 5540 10dc 48F7E7   		mulq	%rdi	# tmp219
 5541 10df 4889C8   		movq	%rcx, %rax	# tmp216, tmp220
 5542 10e2 4829D0   		subq	%rdx, %rax	# tmp218, tmp220
 5543 10e5 48D1E8   		shrq	%rax	# tmp221
 5544 10e8 4801C2   		addq	%rax, %rdx	# tmp221, tmp222
 5545 10eb 48C1EA1E 		shrq	$30, %rdx	#, _seed_lsm.638
 5546 10ef 4889D0   		movq	%rdx, %rax	# _seed_lsm.638, tmp224
 5547 10f2 48C1E01F 		salq	$31, %rax	#, tmp224
 5548 10f6 4829D0   		subq	%rdx, %rax	# _seed_lsm.638, tmp225
 5549 10f9 4829C1   		subq	%rax, %rcx	# tmp225, tmp216
 5550 10fc 4C8D8900 		leaq	16384(%rcx), %r9	#, _141
 5550      400000
 5551 1103 4889CA   		movq	%rcx, %rdx	# tmp216, _seed_lsm.638
 5553      84000000 
 5553      0000
 5555              	.L361:
 5561 1110 4869F28F 		imulq	$48271, %rdx, %rsi	#, _seed_lsm.638, tmp226
 5561      BC0000
 5564              	# Randomisation.generated.h:28: 		arr[i].reference = reference + i;
  28:Randomisation.generated.h **** 	}
 5566 1117 48890B   		movq	%rcx, (%rbx)	# ivtmp.699, MEM[base: _146, offset: 0B]
 5567 111a 4883C101 		addq	$1, %rcx	#, ivtmp.699
 5569 111e 4883C310 		addq	$16, %rbx	#, ivtmp.700
 5572              	# Randomisation.h:20:     _seed = _seed * 48271 % 2147483647;
  20:Randomisation.h ****     return _seed;
 5574 1122 4889F0   		movq	%rsi, %rax	# tmp226, tmp256
 5575 1125 48F7E7   		mulq	%rdi	# tmp228
 5576 1128 4889F0   		movq	%rsi, %rax	# tmp226, tmp229
 5577 112b 4829D0   		subq	%rdx, %rax	# tmp227, tmp229
 5578 112e 48D1E8   		shrq	%rax	# tmp230
 5579 1131 4801C2   		addq	%rax, %rdx	# tmp230, tmp231
 5580 1134 48C1EA1E 		shrq	$30, %rdx	#, _seed_lsm.638
 5581 1138 4889D0   		movq	%rdx, %rax	# _seed_lsm.638, tmp233
 5582 113b 48C1E01F 		salq	$31, %rax	#, tmp233
 5583 113f 4829D0   		subq	%rdx, %rax	# _seed_lsm.638, tmp234
 5584 1142 4829C6   		subq	%rax, %rsi	# tmp234, tmp226
 5587              	# Randomisation.generated.h:27: 		arr[i].key = randomisation::GenerateRandomUint64();
  27:Randomisation.generated.h **** 		arr[i].reference = reference + i;
 5589 1145 488973E8 		movq	%rsi, -24(%rbx)	# _seed_lsm.638, MEM[base: _146, offset: -8B]
 5592              	# Randomisation.h:20:     _seed = _seed * 48271 % 2147483647;
  20:Randomisation.h ****     return _seed;
 5594 1149 4889F2   		movq	%rsi, %rdx	# tmp226, _seed_lsm.638
 5597              	# Randomisation.generated.h:25: 	for (int i = 0; i < arraySize; i += 1)
  25:Randomisation.generated.h **** 	{
 5599 114c 4939C9   		cmpq	%rcx, %r9	# ivtmp.699, _141
 5600 114f 75BF     		jne	.L361	#,
 5601 1151 48893500 		movq	%rsi, _ZN13randomisation5_seedE(%rip)	# _seed_lsm.638, _seed
 5601      000000
 5609              	# /usr/include/c++/7/bits/stl_algo.h:1968: 	  std::__introsort_loop(__first, __last,
 5611 1158 488D0D00 		leaq	_ZN11measurement13NormalCompareI11SortableRefEEbRT_S3_(%rip), %rcx	#,
 5611      000000
 5612 115f 4C89F6   		movq	%r14, %rsi	# i,
 5613 1162 4889EF   		movq	%rbp, %rdi	# arr,
 5614 1165 BA1C0000 		movl	$28, %edx	#,
 5614      00
 5615 116a E851FBFF 		call	_ZSt16__introsort_loopIP11SortableReflN9__gnu_cxx5__ops15_Iter_comp_iterIPFbRS0_S5_EEEEvT_S9_
 5615      FF
 5617 116f EB33     		jmp	.L368	#
 5619              	.L398:
 5631              	# /usr/include/c++/7/bits/stl_algobase.h:569: 	  if (_Num)
 5633 1171 4939ED   		cmpq	%rbp, %r13	# arr, __i
 5634 1174 741D     		je	.L363	#,
 5635              	# /usr/include/c++/7/bits/stl_algobase.h:570: 	    __builtin_memmove(__result - _Num, __first, size
 5637 1176 488B7C24 		movq	8(%rsp), %rdi	# %sfp, tmp246
 5637      08
 5638 117b 4C89EA   		movq	%r13, %rdx	# __i, tmp243
 5639 117e 4889EE   		movq	%rbp, %rsi	# arr,
 5640 1181 48894C24 		movq	%rcx, 16(%rsp)	# pretmp_140, %sfp
 5640      10
 5641 1186 4829EA   		subq	%rbp, %rdx	# arr, tmp243
 5642 1189 E8000000 		call	memmove@PLT	#
 5642      00
 5644 118e 488B4C24 		movq	16(%rsp), %rcx	# %sfp, pretmp_140
 5644      10
 5645              	.L363:
 5654              	# /usr/include/c++/7/bits/stl_algo.h:1845:       for (_RandomAccessIterator __i = __first + 1; __i 
 5656 1193 4983C510 		addq	$16, %r13	#, __i
 5659              	# /usr/include/c++/7/bits/stl_algo.h:1852: 	      *__first = _GLIBCXX_MOVE(__val);
 5661 1197 48895D00 		movq	%rbx, 0(%rbp)	# _192, MEM[(struct SortableRef *)arr_6]
 5662 119b 48894D08 		movq	%rcx, 8(%rbp)	# pretmp_140, MEM[(struct SortableRef *)arr_6 + 8B]
 5666              	# /usr/include/c++/7/bits/stl_algo.h:1845:       for (_RandomAccessIterator __i = __first + 1; __i 
 5668 119f 4D39EC   		cmpq	%r13, %r12	# __i, _87
 5669 11a2 744C     		je	.L367	#,
 5671              	.L368:
 5676              	# Measure.h:199:     return left < right;
 199:Measure.h     **** }
 5678 11a4 498B5D00 		movq	0(%r13), %rbx	# MEM[base: __i_285, offset: 0B], _192
 5680 11a8 498B4D08 		movq	8(%r13), %rcx	# MEM[base: __i_285, offset: 8], pretmp_140
 5684              	# /usr/include/c++/7/bits/stl_algo.h:1847: 	  if (__comp(__i, __first))
 5686 11ac 483B5D00 		cmpq	0(%rbp), %rbx	# MEM[(long unsigned int *)arr_6], _192
 5687 11b0 72BF     		jb	.L398	#,
 5689 11b2 498D45F0 		leaq	-16(%r13), %rax	#, __last
 5693              	# /usr/include/c++/7/bits/stl_algo.h:1828:       while (__comp(__val, __next))
 5695 11b6 49395DF0 		cmpq	%rbx, -16(%r13)	# _192, MEM[base: __i_285, offset: -16B]
 5696 11ba 770F     		ja	.L366	#,
 5697 11bc E91F0100 		jmp	.L399	#
 5697      00
 5700      000000
 5701              	.L382:
 5702 11c8 4889D0   		movq	%rdx, %rax	# __next, __last
 5704              	.L366:
 5705              	# /usr/include/c++/7/bits/stl_algo.h:1830: 	  *__last = _GLIBCXX_MOVE(*__next);
 5707 11cb C5FA6F00 		vmovdqu	(%rax), %xmm0	# MEM[base: __next_286, offset: 0], MEM[base: __next_286, offset: 0]
 5708              	# /usr/include/c++/7/bits/stl_algo.h:1832: 	  --__next;
 5710 11cf 488D50F0 		leaq	-16(%rax), %rdx	#, __next
 5711              	# /usr/include/c++/7/bits/stl_algo.h:1830: 	  *__last = _GLIBCXX_MOVE(*__next);
 5713 11d3 C5F81140 		vmovups	%xmm0, 16(%rax)	# MEM[base: __next_286, offset: 0], MEM[base: __next_286, offset: 16B]
 5713      10
 5715              	# /usr/include/c++/7/bits/stl_algo.h:1828:       while (__comp(__val, __next))
 5717 11d8 483B58F0 		cmpq	-16(%rax), %rbx	# MEM[base: __next_189, offset: 0B], _192
 5718 11dc 72EA     		jb	.L382	#,
 5720              	.L365:
 5724              	# /usr/include/c++/7/bits/stl_algo.h:1845:       for (_RandomAccessIterator __i = __first + 1; __i 
 5726 11de 4983C510 		addq	$16, %r13	#, __i
 5730              	# /usr/include/c++/7/bits/stl_algo.h:1834:       *__last = _GLIBCXX_MOVE(__val);
 5732 11e2 488918   		movq	%rbx, (%rax)	# _192, MEM[(struct SortableRef *)__last_212]
 5733 11e5 48894808 		movq	%rcx, 8(%rax)	# pretmp_140, MEM[(struct SortableRef *)__last_212 + 8B]
 5738              	# /usr/include/c++/7/bits/stl_algo.h:1845:       for (_RandomAccessIterator __i = __first + 1; __i 
 5740 11e9 4D39EC   		cmpq	%r13, %r12	# __i, _87
 5741 11ec 75B6     		jne	.L368	#,
 5745              	.L367:
 5752              	# /usr/include/c++/7/bits/stl_algo.h:1825: 	__val = _GLIBCXX_MOVE(*__last);
 5754 11f0 498B4D00 		movq	0(%r13), %rcx	# MEM[base: __i_226, offset: 0], __val
 5756 11f4 498D45F0 		leaq	-16(%r13), %rax	#, __last
 5757 11f8 498B7508 		movq	8(%r13), %rsi	# MEM[base: __i_226, offset: 8], __val$reference
 5759              	# /usr/include/c++/7/bits/stl_algo.h:1828:       while (__comp(__val, __next))
 5761 11fc 493B4DF0 		cmpq	-16(%r13), %rcx	# MEM[base: __i_226, offset: -16B], __val
 5762 1200 7211     		jb	.L372	#,
 5763 1202 E9AE0000 		jmp	.L400	#
 5763      00
 5765      00000000 
 5765      00
 5767              	.L384:
 5768 1210 4889D0   		movq	%rdx, %rax	# __next, __last
 5770              	.L372:
 5771              	# /usr/include/c++/7/bits/stl_algo.h:1830: 	  *__last = _GLIBCXX_MOVE(*__next);
 5773 1213 C5FA6F00 		vmovdqu	(%rax), %xmm0	# MEM[base: __next_280, offset: 0], MEM[base: __next_280, offset: 0]
 5774              	# /usr/include/c++/7/bits/stl_algo.h:1832: 	  --__next;
 5776 1217 488D50F0 		leaq	-16(%rax), %rdx	#, __next
 5777              	# /usr/include/c++/7/bits/stl_algo.h:1830: 	  *__last = _GLIBCXX_MOVE(*__next);
 5779 121b C5F81140 		vmovups	%xmm0, 16(%rax)	# MEM[base: __next_280, offset: 0], MEM[base: __next_280, offset: 16B]
 5779      10
 5781              	# /usr/include/c++/7/bits/stl_algo.h:1828:       while (__comp(__val, __next))
 5783 1220 483B48F0 		cmpq	-16(%rax), %rcx	# MEM[base: __next_169, offset: 0B], __val
 5784 1224 72EA     		jb	.L384	#,
 5787              	# /usr/include/c++/7/bits/stl_algo.h:1866:       for (_RandomAccessIterator __i = __first; __i != _
 5789 1226 4983C510 		addq	$16, %r13	#, __i
 5792              	# /usr/include/c++/7/bits/stl_algo.h:1834:       *__last = _GLIBCXX_MOVE(__val);
 5794 122a 488908   		movq	%rcx, (%rax)	# __val, MEM[(struct SortableRef *)__last_246]
 5795 122d 48897008 		movq	%rsi, 8(%rax)	# __val$reference, MEM[(struct SortableRef *)__last_246 + 8B]
 5799              	# /usr/include/c++/7/bits/stl_algo.h:1866:       for (_RandomAccessIterator __i = __first; __i != _
 5801 1231 4D39EE   		cmpq	%r13, %r14	# __i, i
 5802 1234 75BA     		jne	.L367	#,
 5804              	.L404:
 5813              	# ArrayHelpers.h:61:         if (__builtin_expect(items[i] > items[i + 1], 0)) 
 5815 1236 488B5510 		movq	16(%rbp), %rdx	# MEM[(long unsigned int *)arr_6 + 16B], D__lsm0.644
 5817 123a 483B5500 		cmpq	0(%rbp), %rdx	# MEM[(long unsigned int *)arr_6], D__lsm0.644
 5818 123e 7225     		jb	.L369	#,
 5819 1240 4883C520 		addq	$32, %rbp	#, ivtmp.654
 5820 1244 EB16     		jmp	.L375	#
 5822      84000000 
 5822      0000
 5824              	.L402:
 5825 1250 4883C510 		addq	$16, %rbp	#, ivtmp.654
 5826 1254 4889C2   		movq	%rax, %rdx	# _45, D__lsm0.644
 5827              	# ArrayHelpers.h:59:     for (int i = 0; i < arraySize - 1; i += 1) 
  59:ArrayHelpers.h ****     {
 5829 1257 4939EF   		cmpq	%rbp, %r15	# ivtmp.654, _235
 5830 125a 7423     		je	.L401	#,
 5831              	.L375:
 5833              	# ArrayHelpers.h:61:         if (__builtin_expect(items[i] > items[i + 1], 0)) 
 5835 125c 488B4500 		movq	0(%rbp), %rax	# MEM[base: _248, offset: 0B], _45
 5837 1260 4839D0   		cmpq	%rdx, %rax	# D__lsm0.644, _45
 5838 1263 73EB     		jnb	.L402	#,
 5840              	.L369:
 5843              	# test.cc:35:         debug::WriteLine("Wrong sort std sort");
  26:test.cc       ****     }
  27:test.cc       ****     else
  28:test.cc       ****     {
  29:test.cc       ****         debug::WriteLine("Correct sort qs copy");
  30:test.cc       ****     }
  31:test.cc       ****     randomisation::GenerateRandomArray(arr, arraySize);
  32:test.cc       ****     std::sort(arr, arr + arraySize, &measurement::NormalCompare<SortableRef>);
  33:test.cc       ****     if (!IsSorted(arr, arraySize))
  34:test.cc       ****     {
  35:test.cc       ****         debug::WriteLine("Wrong sort std sort");
 5845 1265 488D3D00 		leaq	.LC9(%rip), %rdi	#,
 5845      000000
 5846              	.L392:
 5847              	# test.cc:41: }
  36:test.cc       ****     }
  37:test.cc       ****     else
  38:test.cc       ****     {
  39:test.cc       ****         debug::WriteLine("Correct sort std sort");
  40:test.cc       ****     }
  41:test.cc       **** }
 5849 126c 4883C428 		addq	$40, %rsp	#,
 5852 1270 5B       		popq	%rbx	#
 5854 1271 5D       		popq	%rbp	#
 5856 1272 415C     		popq	%r12	#
 5859 1274 415D     		popq	%r13	#
 5861 1276 415E     		popq	%r14	#
 5864 1278 415F     		popq	%r15	#
 5867              	# test.cc:39:         debug::WriteLine("Correct sort std sort");
  39:test.cc       ****     }
 5869 127a E9000000 		jmp	_ZN5debug9WriteLineIJPKcEEEvDpT_	#
 5869      00
 5871              	.L401:
 5873 127f 488D3D00 		leaq	.LC10(%rip), %rdi	#,
 5873      000000
 5874 1286 EBE4     		jmp	.L392	#
 5876              	.L396:
 5877              	# test.cc:29:         debug::WriteLine("Correct sort qs copy");
  29:test.cc       ****     }
 5879 1288 488D3D00 		leaq	.LC7(%rip), %rdi	#,
 5879      000000
 5880 128f E8000000 		call	_ZN5debug9WriteLineIJPKcEEEvDpT_	#
 5880      00
 5882 1294 E92BFEFF 		jmp	.L376	#
 5882      FF
 5884              	.L395:
 5895              	# Quicksort_Copy.h:128:     while (compare(&val, next))
 128:Quicksort_Copy.h ****     {
 5897 1299 4C89F0   		movq	%r14, %rax	# i, last
 5901              	# Quicksort_Copy.h:140:     for (TValueType* i = first; i != last; ++i)
 140:Quicksort_Copy.h ****     {
 5903 129c 4983C610 		addq	$16, %r14	#, i
 5907              	# Quicksort_Copy.h:134:     *last = std::move(val);
 134:Quicksort_Copy.h **** }
 5909 12a0 488908   		movq	%rcx, (%rax)	# val, MEM[(struct SortableRef *)last_247]
 5910 12a3 48897008 		movq	%rsi, 8(%rax)	# val$reference, MEM[(struct SortableRef *)last_247 + 8B]
 5914              	# Quicksort_Copy.h:140:     for (TValueType* i = first; i != last; ++i)
 140:Quicksort_Copy.h ****     {
 5916 12a7 4D39F7   		cmpq	%r14, %r15	# i, _235
 5917 12aa 0F8590FD 		jne	.L352	#,
 5917      FFFF
 5918 12b0 E9D1FDFF 		jmp	.L403	#
 5918      FF
 5920              	.L400:
 5937              	# /usr/include/c++/7/bits/stl_algo.h:1828:       while (__comp(__val, __next))
 5939 12b5 4C89E8   		movq	%r13, %rax	# __i, __last
 5943              	# /usr/include/c++/7/bits/stl_algo.h:1866:       for (_RandomAccessIterator __i = __first; __i != _
 5945 12b8 4983C510 		addq	$16, %r13	#, __i
 5949              	# /usr/include/c++/7/bits/stl_algo.h:1834:       *__last = _GLIBCXX_MOVE(__val);
 5951 12bc 488908   		movq	%rcx, (%rax)	# __val, MEM[(struct SortableRef *)__last_246]
 5952 12bf 48897008 		movq	%rsi, 8(%rax)	# __val$reference, MEM[(struct SortableRef *)__last_246 + 8B]
 5956              	# /usr/include/c++/7/bits/stl_algo.h:1866:       for (_RandomAccessIterator __i = __first; __i != _
 5958 12c3 4D39EE   		cmpq	%r13, %r14	# __i, i
 5959 12c6 0F8524FF 		jne	.L367	#,
 5959      FFFF
 5960 12cc E965FFFF 		jmp	.L404	#
 5960      FF
 5962              	.L394:
 5980              	# Quicksort_Copy.h:128:     while (compare(&val, next))
 128:Quicksort_Copy.h ****     {
 5982 12d1 4C89F0   		movq	%r14, %rax	# i, last
 5984              	# Quicksort_Copy.h:134:     *last = std::move(val);
 134:Quicksort_Copy.h **** }
 5986 12d4 488908   		movq	%rcx, (%rax)	# _115, MEM[(struct SortableRef *)last_225]
 5987 12d7 4C894808 		movq	%r9, 8(%rax)	# pretmp_120, MEM[(struct SortableRef *)last_225 + 8B]
 5989 12db E94DFDFF 		jmp	.L405	#
 5989      FF
 5991              	.L399:
 6012              	# /usr/include/c++/7/bits/stl_algo.h:1828:       while (__comp(__val, __next))
 6014 12e0 4C89E8   		movq	%r13, %rax	# __i, __last
 6016 12e3 E9F6FEFF 		jmp	.L365	#
 6016      FF
 6029              		.section	.text.startup,"ax",@progbits
 6032              	_GLOBAL__sub_I__ZN13randomisation5_seedE:
 6039              	# /usr/include/c++/7/iostream:74:   static ios_base::Init __ioinit;
 6042 0000 488D3D00 		leaq	_ZStL8__ioinit(%rip), %rdi	#,
 6042      000000
 6045              	# test.cc:41: }
 6047 0007 4883EC08 		subq	$8, %rsp	#,
 6051              	# /usr/include/c++/7/iostream:74:   static ios_base::Init __ioinit;
 6053 000b E8000000 		call	_ZNSt8ios_base4InitC1Ev@PLT	#
 6053      00
 6055 0010 488B3D00 		movq	_ZNSt8ios_base4InitD1Ev@GOTPCREL(%rip), %rdi	#,
 6055      000000
 6058              	# test.cc:41: }
 6060 0017 4883C408 		addq	$8, %rsp	#,
 6064              	# /usr/include/c++/7/iostream:74:   static ios_base::Init __ioinit;
 6066 001b 488D1500 		leaq	__dso_handle(%rip), %rdx	#,
 6066      000000
 6067 0022 488D3500 		leaq	_ZStL8__ioinit(%rip), %rsi	#,
 6067      000000
 6068 0029 E9000000 		jmp	__cxa_atexit@PLT	#
 6068      00
 6075              		.section	.init_array,"aw"
 6076              		.align 8
 6077 0000 00000000 		.quad	_GLOBAL__sub_I__ZN13randomisation5_seedE
 6077      00000000 
 6078              		.globl	_ZN13randomisation5_seedE
 6079              		.data
 6080              		.align 8
 6083              	_ZN13randomisation5_seedE:
 6084 0000 01000000 		.quad	1
 6084      00000000 
 6085              		.local	_ZStL8__ioinit
 6086              		.comm	_ZStL8__ioinit,1,1
 6087              		.text
 6088              	.Letext0:
 44219              		.align 8
 44222              	DW.ref.__gxx_personality_v0:
 44223 0000 00000000 		.quad	__gxx_personality_v0
 44223      00000000 
 44224              		.hidden	__dso_handle
 44225              		.ident	"GCC: (Ubuntu 7.3.0-27ubuntu1~18.04) 7.3.0"
 44226              		.section	.note.GNU-stack,"",@progbits
